Archive member included because of file (symbol)

board/wmt/libwmt.a(lowlevel_init.o)
                              cpu/arm920t/start.o (lowlevel_init)
cpu/arm920t/libarm920t.a(interrupts.o)
                              cpu/arm920t/start.o (do_undefined_instruction)
cpu/arm920t/wmt/libwmt.a(interrupts.o)
                              cpu/arm920t/libarm920t.a(interrupts.o) (reset_cpu)
lib_arm/libarm.a(board.o)     cpu/arm920t/start.o (start_armboot)
net/libnet.a(net.o)           lib_arm/libarm.a(board.o) (copy_filename)
net/libnet.a(tftp.o)          net/libnet.a(net.o) (TftpStart)
net/libnet.a(bootp.o)         net/libnet.a(net.o) (BootpRequest)
net/libnet.a(rarp.o)          net/libnet.a(net.o) (RarpRequest)
net/libnet.a(eth.o)           lib_arm/libarm.a(board.o) (eth_initialize)
net/libnet.a(nfs.o)           net/libnet.a(net.o) (NfsStart)
common/libcommon.a(main.o)    lib_arm/libarm.a(board.o) (main_loop)
common/libcommon.a(cmd_autoscript.o)
                              (__u_boot_cmd_autoscr)
common/libcommon.a(cmd_bdinfo.o)
                              (__u_boot_cmd_bdinfo)
common/libcommon.a(cmd_boot.o)
                              (__u_boot_cmd_go)
common/libcommon.a(cmd_bootm.o)
                              common/libcommon.a(main.o) (do_bootd)
common/libcommon.a(cmd_console.o)
                              (__u_boot_cmd_coninfo)
common/libcommon.a(cmd_fat.o)
                              (__u_boot_cmd_fatload)
common/libcommon.a(cmd_flash.o)
                              (__u_boot_cmd_flinfo)
common/libcommon.a(cmd_i2c.o)
                              (__u_boot_cmd_imd)
common/libcommon.a(cmd_ide.o)
                              common/libcommon.a(cmd_fat.o) (ide_get_dev)
common/libcommon.a(cmd_itest.o)
                              (__u_boot_cmd_itest)
common/libcommon.a(cmd_load.o)
                              (__u_boot_cmd_loads)
common/libcommon.a(cmd_mem.o)
                              common/libcommon.a(cmd_i2c.o) (cmd_get_data_size)
common/libcommon.a(cmd_mii.o)
                              (__u_boot_cmd_mii)
common/libcommon.a(cmd_misc.o)
                              (__u_boot_cmd_sleep)
common/libcommon.a(cmd_mmc.o)
                              (__u_boot_cmd_mmcinit)
common/libcommon.a(cmd_dma.o)
                              (__u_boot_cmd_dmacp)
common/libcommon.a(cmd_nand.o)
                              lib_arm/libarm.a(board.o) (nand_probe)
common/libcommon.a(cmd_net.o)
                              (__u_boot_cmd_bootp)
common/libcommon.a(cmd_nvedit.o)
                              common/libcommon.a(cmd_mmc.o) (do_setenv)
common/libcommon.a(cmd_usb.o)
                              (__u_boot_cmd_usb)
common/libcommon.a(command.o)
                              common/libcommon.a(main.o) (find_cmd)
common/libcommon.a(console.o)
                              cpu/arm920t/libarm920t.a(interrupts.o) (printf)
common/libcommon.a(devices.o)
                              lib_arm/libarm.a(board.o) (devices_init)
common/libcommon.a(dlmalloc.o)
                              common/libcommon.a(cmd_autoscript.o) (free)
common/libcommon.a(env_common.o)
                              common/libcommon.a(cmd_nvedit.o) (env_crc_update)
common/libcommon.a(env_flash.o)
                              common/libcommon.a(env_common.o) (env_get_char_spec)
common/libcommon.a(exports.o)
                              lib_arm/libarm.a(board.o) (jumptable_init)
common/libcommon.a(wmt_cmd_display.o)
                              (__u_boot_cmd_display)
common/libcommon.a(minivgui.o)
                              common/libcommon.a(wmt_cmd_display.o) (mv_initPrimary)
common/libcommon.a(uboot-vpp.o)
                              common/libcommon.a(wmt_cmd_display.o) (wmt_graphic_init)
common/libcommon.a(cmd_mbit.o)
                              (__u_boot_cmd_mbit)
common/libcommon.a(cmd_textout.o)
                              common/libcommon.a(wmt_cmd_display.o) (text_x)
common/libcommon.a(env_parse.o)
                              common/libcommon.a(uboot-vpp.o) (parse_gpio_operation)
common/libcommon.a(flash.o)   common/libcommon.a(cmd_load.o) (addr2info)
common/libcommon.a(hush.o)    common/libcommon.a(main.o) (parse_string_outer)
common/libcommon.a(lists.o)   common/libcommon.a(devices.o) (ListCreate)
common/libcommon.a(miiphyutil.o)
                              net/libnet.a(eth.o) (miiphy_init)
common/libcommon.a(s_record.o)
                              common/libcommon.a(cmd_load.o) (srec_decode)
common/libcommon.a(usb.o)     common/libcommon.a(cmd_usb.o) (usb_string)
common/libcommon.a(usb_storage.o)
                              common/libcommon.a(cmd_fat.o) (usb_stor_get_dev)
common/libcommon.a(pwm.o)     common/libcommon.a(wmt_cmd_display.o) (pwm_set_control)
common/libcommon.a(govrh.o)   common/libcommon.a(uboot-vpp.o) (govrh_mod_init)
common/libcommon.a(vout.o)    common/libcommon.a(uboot-vpp.o) (vout_get_entry)
common/libcommon.a(lcd.o)     common/libcommon.a(uboot-vpp.o) (lcd_module_init)
common/libcommon.a(lvds.o)    common/libcommon.a(govrh.o) (lvds_get_colfmt)
common/libcommon.a(vpp.o)     common/libcommon.a(govrh.o) (vpp_mod_register)
common/libcommon.a(hdmi.o)    common/libcommon.a(govrh.o) (hdmi_get_output_colfmt)
common/libcommon.a(parse-edid.o)
                              common/libcommon.a(vout.o) (edid_parse)
common/libcommon.a(vout-wmt.o)
                              common/libcommon.a(uboot-vpp.o) (vo_dvi_initial)
common/libcommon.a(lcd-oem.o)
                              common/libcommon.a(uboot-vpp.o) (lcd_oem_init)
common/libcommon.a(lcd-AUO-A080SN01.o)
                              common/libcommon.a(uboot-vpp.o) (lcd_a080sn01_init)
common/libcommon.a(lcd-INNOLUX-AT070TN83.o)
                              common/libcommon.a(uboot-vpp.o) (lcd_at070tn83_init)
common/libcommon.a(lcd-CHILIN-LW700at9003.o)
                              common/libcommon.a(uboot-vpp.o) (lcd_lw700at9003_init)
common/libcommon.a(lcd-EKING-EK08009-70135.o)
                              common/libcommon.a(uboot-vpp.o) (lcd_ek08009_init)
common/libcommon.a(lcd-HANNSTAR-HSD101PFW2.o)
                              common/libcommon.a(uboot-vpp.o) (lcd_HSD101PFW2_init)
common/libcommon.a(vt1632.o)  common/libcommon.a(uboot-vpp.o) (vt1632_module_init)
common/libcommon.a(sil902x.o)
                              common/libcommon.a(uboot-vpp.o) (sil902x_module_init)
common/libcommon.a(cs8556.o)  common/libcommon.a(uboot-vpp.o) (cs8556_module_init)
common/libcommon.a(wmt-ost.o)
                              common/libcommon.a(lvds.o) (wmt_delayus)
common/libcommon.a(vpp-osif.o)
                              common/libcommon.a(vout-wmt.o) (vppif_reg8_in)
common/libcommon.a(sw_i2c.o)  common/libcommon.a(vout-wmt.o) (wmt_swi2c_read)
lib_generic/libgeneric.a(crc32.o)
                              common/libcommon.a(cmd_autoscript.o) (crc32)
lib_generic/libgeneric.a(ctype.o)
                              common/libcommon.a(cmd_textout.o) (_ctype)
lib_generic/libgeneric.a(display_options.o)
                              lib_arm/libarm.a(board.o) (print_size)
lib_generic/libgeneric.a(string.o)
                              net/libnet.a(net.o) (strcpy)
lib_generic/libgeneric.a(vsprintf.o)
                              lib_arm/libarm.a(board.o) (simple_strtoul)
lib_generic/libgeneric.a(zlib.o)
                              common/libcommon.a(cmd_bootm.o) (inflateEnd)
board/wmt/libwmt.a(wmt.o)     lib_arm/libarm.a(board.o) (board_init)
board/wmt/libwmt.a(flash.o)   lib_arm/libarm.a(board.o) (flash_init)
board/wmt/libwmt.a(main.o)    lib_arm/libarm.a(board.o) (wmt_post)
board/wmt/libwmt.a(spi_flash.o)
                              board/wmt/libwmt.a(flash.o) (spi_flash_init)
board/wmt/libwmt.a(nand_flash.o)
                              board/wmt/libwmt.a(flash.o) (nand_flash_init)
board/wmt/libwmt.a(nor_flash_8bit.o)
                              board/wmt/libwmt.a(flash.o) (nor_flash_8b_init)
board/wmt/libwmt.a(nor_flash_16bit.o)
                              board/wmt/libwmt.a(flash.o) (nor_flash_16b_init)
board/wmt/libwmt.a(wmt_clk.o)
                              common/libcommon.a(uboot-vpp.o) (auto_pll_divisor)
board/wmt/libwmt.a(ehci-hcd.o)
                              common/libcommon.a(usb.o) (usb_lowlevel_stop)
board/wmt/libwmt.a(usb_uhci.o)
                              common/libcommon.a(usb.o) (submit_uhci_control_msg)
board/wmt/libwmt.a(wmt_i2c.o)
                              common/libcommon.a(devices.o) (i2c_init)
board/wmt/libwmt.a(wmt_i2c_1.o)
                              common/libcommon.a(devices.o) (i2c1_init)
board/wmt/libwmt.a(wmt_i2c_2.o)
                              common/libcommon.a(devices.o) (i2c2_init)
board/wmt/libwmt.a(wmt_i2c_3.o)
                              common/libcommon.a(devices.o) (i2c3_init)
cpu/arm920t/libarm920t.a(cpu.o)
                              lib_arm/libarm.a(board.o) (cpu_init)
cpu/arm920t/wmt/libwmt.a(serial.o)
                              common/libcommon.a(console.o) (serial_putc)
cpu/arm920t/wmt/libwmt.a(ether.o)
                              net/libnet.a(net.o) (eth_init)
cpu/arm920t/wmt/libwmt.a(macif.o)
                              cpu/arm920t/wmt/libwmt.a(ether.o) (mac_startio)
cpu/arm920t/wmt/libwmt.a(adapter.o)
                              cpu/arm920t/wmt/libwmt.a(macif.o) (ADPuInitAll)
cpu/arm920t/wmt/libwmt.a(alloct.o)
                              cpu/arm920t/wmt/libwmt.a(adapter.o) (ALCbAllocateRdrMemory)
cpu/arm920t/wmt/libwmt.a(mii.o)
                              cpu/arm920t/wmt/libwmt.a(macif.o) (MIIbReadEmbedded)
cpu/arm920t/wmt/libwmt.a(mem.o)
                              cpu/arm920t/wmt/libwmt.a(alloct.o) (MEMvAlign)
cpu/arm920t/wmt/libwmt.a(vpci.o)
                              cpu/arm920t/wmt/libwmt.a(adapter.o) (VPCIvReadB)
cpu/arm920t/wmt/libwmt.a(dma.o)
                              common/libcommon.a(cmd_dma.o) (request_dma)
cpu/arm920t/wmt/libwmt.a(mmc.o)
                              common/libcommon.a(cmd_fat.o) (mmc_get_dev)
cpu/arm920t/wmt/libwmt.a(mac.o)
                              cpu/arm920t/wmt/libwmt.a(adapter.o) (MACbIsIn100MMode)
lib_arm/libarm.a(armlinux.o)  common/libcommon.a(cmd_bootm.o) (do_bootm_linux)
lib_arm/libarm.a(cache.o)     common/libcommon.a(cmd_ide.o) (flush_cache)
fs/fat/libfat.a(fat.o)        common/libcommon.a(cmd_fat.o) (fat_register_device)
disk/libdisk.a(part.o)        common/libcommon.a(cmd_ide.o) (dev_print)
disk/libdisk.a(part_dos.o)    disk/libdisk.a(part.o) (test_part_dos)
cpu/arm920t/wmt/libwmt.a(zde.o)
                              lib_arm/libarm.a(armlinux.o) (semi_bootloados)
/home/pd2/toolchain/arm_201103_gcc4.5.2/bin/../lib/gcc/arm-none-linux-gnueabi/4.5.2/libgcc.a(_udivsi3.o)
                              cpu/arm920t/wmt/libwmt.a(interrupts.o) (__aeabi_uidiv)
/home/pd2/toolchain/arm_201103_gcc4.5.2/bin/../lib/gcc/arm-none-linux-gnueabi/4.5.2/libgcc.a(_divsi3.o)
                              common/libcommon.a(uboot-vpp.o) (__aeabi_idiv)
/home/pd2/toolchain/arm_201103_gcc4.5.2/bin/../lib/gcc/arm-none-linux-gnueabi/4.5.2/libgcc.a(_lshrdi3.o)
                              common/libcommon.a(cmd_nand.o) (__aeabi_llsr)
/home/pd2/toolchain/arm_201103_gcc4.5.2/bin/../lib/gcc/arm-none-linux-gnueabi/4.5.2/libgcc.a(_ashldi3.o)
                              common/libcommon.a(cmd_nand.o) (__aeabi_llsl)
/home/pd2/toolchain/arm_201103_gcc4.5.2/bin/../lib/gcc/arm-none-linux-gnueabi/4.5.2/libgcc.a(_dvmd_lnx.o)
                              /home/pd2/toolchain/arm_201103_gcc4.5.2/bin/../lib/gcc/arm-none-linux-gnueabi/4.5.2/libgcc.a(_udivsi3.o) (__aeabi_idiv0)

Memory Configuration

Name             Origin             Length             Attributes
*default*        0x00000000         0xffffffff

Linker script and memory map

                0x00000000                . = 0x0
                0x00000000                . = ALIGN (0x4)

.text           0x03f80000    0x3b458
 cpu/arm920t/start.o(.text)
 .text          0x03f80000      0x3c0 cpu/arm920t/start.o
                0x03f80000                _start
                0x03f80044                _armboot_start
                0x03f80048                _bss_start
                0x03f8004c                _bss_end
 *(.text)
 .text          0x03f803c0        0x8 board/wmt/libwmt.a(lowlevel_init.o)
                0x03f803c4                lowlevel_init
 .text          0x03f803c8      0x264 cpu/arm920t/libarm920t.a(interrupts.o)
                0x03f803c8                enable_interrupts
                0x03f803cc                disable_interrupts
                0x03f803d4                bad_mode
                0x03f803f0                show_regs
                0x03f80530                do_undefined_instruction
                0x03f80554                do_software_interrupt
                0x03f80578                do_prefetch_abort
                0x03f8059c                do_data_abort
                0x03f805c0                do_not_used
                0x03f805e4                do_fiq
                0x03f80608                do_irq
 .text          0x03f8062c      0x22c cpu/arm920t/wmt/libwmt.a(interrupts.o)
                0x03f80660                set_timer
                0x03f80670                reset_timer_masked
                0x03f80690                reset_timer
                0x03f80694                interrupt_init
                0x03f806d8                get_timer_masked
                0x03f8070c                get_timer
                0x03f80720                udelay
                0x03f80788                udelay_masked
                0x03f807dc                get_ticks
                0x03f807f0                get_tbclk
                0x03f807fc                reset_cpu
 .text          0x03f80858      0x358 lib_arm/libarm.a(board.o)
                0x03f80924                nand_init
                0x03f80948                sbrk
                0x03f80980                raise
                0x03f80984                hang
                0x03f80998                start_armboot
 .text          0x03f80bb0     0x1190 net/libnet.a(net.o)
                0x03f80c64                NetSetHandler
                0x03f80c74                NetSetTimeout
                0x03f80ca4                NetStartAgain
                0x03f80d20                NetSendPacket
                0x03f80d24                NetCksum
                0x03f80d58                NetCksumOk
                0x03f80d78                NetEthHdrSize
                0x03f80db4                NetSetEther
                0x03f80e54                ArpRequest
                0x03f80f34                ArpTimeoutCheck
                0x03f80fa8                PingSend
                0x03f810cc                NetSetIP
                0x03f811b0                NetSendUDPPacket
                0x03f812e8                copy_filename
                0x03f8132c                ip_to_string
                0x03f81368                string_to_ip
                0x03f813d0                VLAN_to_string
                0x03f81424                string_to_VLAN
                0x03f81468                print_IPaddr
                0x03f81484                NetReceive
                0x03f81910                getenv_IPaddr
                0x03f81920                getenv_VLAN
                0x03f81930                NetLoop
 .text          0x03f81d40      0x5f0 net/libnet.a(tftp.o)
                0x03f82140                TftpStart
 .text          0x03f82330      0x8f0 net/libnet.a(bootp.o)
                0x03f82a38                BootpRequest
                0x03f82c1c                DhcpRequest
 .text          0x03f82c20      0x194 net/libnet.a(rarp.o)
                0x03f82c7c                RarpRequest
 .text          0x03f82db4       0xcc net/libnet.a(eth.o)
                0x03f82db4                eth_parse_enetaddr
                0x03f82e08                eth_getenv_enetaddr
                0x03f82e64                eth_initialize
 .text          0x03f82e80      0xe0c net/libnet.a(nfs.o)
                0x03f83a64                NfsStart
 .text          0x03f83c8c      0x90c common/libcommon.a(main.o)
                0x03f83d68                readline
                0x03f83f58                run_command
                0x03f84388                main_loop
                0x03f84518                do_run
 .text          0x03f84598      0x1b0 common/libcommon.a(cmd_autoscript.o)
                0x03f845a0                autoscript
                0x03f84708                do_autoscript
 .text          0x03f84748       0xec common/libcommon.a(cmd_bdinfo.o)
                0x03f84760                do_bdinfo
 .text          0x03f84834       0x80 common/libcommon.a(cmd_boot.o)
                0x03f84834                do_go
 .text          0x03f848b4      0xa74 common/libcommon.a(cmd_bootm.o)
                0x03f848d4                do_bootd
                0x03f848f8                print_image_hdr
                0x03f84c6c                do_iminfo
                0x03f84ccc                gunzip
                0x03f84e18                do_bootm
 .text          0x03f85328       0xd0 common/libcommon.a(cmd_console.o)
                0x03f85328                do_coninfo
 .text          0x03f853f8      0x558 common/libcommon.a(cmd_fat.o)
                0x03f853f8                get_dev
                0x03f85480                do_fat_fsinfo
                0x03f85558                do_fat_ls
                0x03f85660                do_fat_fsstore
                0x03f857d0                do_fat_fsload
 .text          0x03f85950      0xbb8 common/libcommon.a(cmd_flash.o)
                0x03f85df4                do_flinfo
                0x03f85e9c                flash_sect_erase
                0x03f85f84                do_flerase
                0x03f86160                flash_sect_protect
                0x03f86264                do_protect
 .text          0x03f86508      0x92c common/libcommon.a(cmd_i2c.o)
                0x03f86510                do_i2c_loop
                0x03f86624                do_i2c_probe
                0x03f86674                do_i2c_md
                0x03f8685c                do_i2c_crc
                0x03f869ac                do_i2c_reg_set
                0x03f86aac                do_i2c_mw
                0x03f86de4                do_i2c_nm
                0x03f86e0c                do_i2c_mm
 .text          0x03f86e34      0xe10 common/libcommon.a(cmd_ide.o)
                0x03f86f3c                do_diskboot
                0x03f873b8                ide_read
                0x03f87594                ide_init
                0x03f8770c                ide_get_dev
                0x03f87720                ide_write
                0x03f87880                do_ide
 .text          0x03f87c44      0x2d0 common/libcommon.a(cmd_itest.o)
                0x03f87ca8                binary_test
                0x03f87e68                do_itest
 .text          0x03f87f14      0xb1c common/libcommon.a(cmd_load.o)
                0x03f88174                do_load_serial
                0x03f88250                send_pad
                0x03f8827c                ktrans
                0x03f8829c                chk1
                0x03f882c4                s1_sendpacket
                0x03f882e8                send_ack
                0x03f88344                send_nack
                0x03f883a0                k_data_init
                0x03f883c0                k_data_save
                0x03f883ec                k_data_restore
                0x03f88418                k_data_char
                0x03f88468                handle_send_packet
                0x03f8862c                do_load_serial_bin
 .text          0x03f88a30      0xbe4 common/libcommon.a(cmd_mem.o)
                0x03f88a30                do_mem_base
                0x03f88a70                do_mem_crc
                0x03f88bac                do_mem_mtest
                0x03f88cd0                cmd_get_data_size
                0x03f88d20                do_mem_loop
                0x03f88e1c                do_mem_cp
                0x03f89018                do_mem_cmp
                0x03f891b4                do_mem_mw
                0x03f893dc                do_mem_nm
                0x03f89404                do_mem_mm
                0x03f8942c                do_mem_md
 .text          0x03f89614      0x780 common/libcommon.a(cmd_mii.o)
                0x03f8965c                MII_dump_0_to_5
                0x03f89910                do_mii
 .text          0x03f89d94       0x90 common/libcommon.a(cmd_misc.o)
                0x03f89d94                do_sleep
 .text          0x03f89e24      0x6f8 common/libcommon.a(cmd_mmc.o)
                0x03f89e24                do_mmc
                0x03f89e9c                do_mmc_read
                0x03f89f80                do_mmc_write
                0x03f8a088                do_mmc_wait_insert
                0x03f8a124                memdump
                0x03f8a17c                mmc_register_device
                0x03f8a238                do_mmc_read_img
 .text          0x03f8a51c      0x1f8 common/libcommon.a(cmd_dma.o)
                0x03f8a51c                do_dma_cp
                0x03f8a6fc                free_dma_channels
 .text          0x03f8a714     0x7128 common/libcommon.a(cmd_nand.o)
                0x03f8a714                isbbtbadblock
                0x03f8a768                update_bbt_inram
                0x03f8a7a4                toshiba_get_parameter
                0x03f8a7ac                do_parseimg
                0x03f8a960                rdmzier
                0x03f8a9c0                rdmzier_oob
                0x03f8aa44                get_current_nand_chip
                0x03f8aa6c                WRITE_NAND_COMMAND
                0x03f8aa84                print_nfc_register
                0x03f8aaec                print_nand_buf
                0x03f8aba4                nfc_ecc_set
                0x03f8acdc                shift_bit
                0x03f8ad04                NFC_WAIT_READY
                0x03f8ad34                NAND_WAIT_READY
                0x03f8ad7c                NFC_WAIT_CMD_READY
                0x03f8adac                NAND_WAIT_IDLE
                0x03f8ade8                check_block
                0x03f8aedc                NanD_Address
                0x03f8b088                nand_init_pdma
                0x03f8b0bc                nand_free_pdma
                0x03f8b0d8                nand_alloc_desc_pool
                0x03f8b0f8                nand_init_short_desc
                0x03f8b13c                nand_init_long_desc
                0x03f8b198                nand_config_pdma
                0x03f8b1cc                nfc_dma_cfg
                0x03f8b35c                nand_pdma_handler
                0x03f8b43c                hynix_read_retry_get_para
                0x03f8b628                get_read_retry_para
                0x03f8b668                hynix_read_retry_set_para
                0x03f8b874                set_read_retry_para
                0x03f8b8b4                NFC_CHECK_ECC
                0x03f8b918                nand_read_status
                0x03f8b99c                nand_read_page
                0x03f8bb20                wmt_nand_erase
                0x03f8bbd8                nand_page_program
                0x03f8bcd0                eslc_nand_write_block
                0x03f8bed4                nand_write_block
                0x03f8c0ac                eslc_nand_read_block
                0x03f8c144                nand_read_block
                0x03f8c1b8                nfc_1bit_ecc_correct
                0x03f8c32c                nfc_1bit_read_page
                0x03f8c394                calculate_ECC_info
                0x03f8c5cc                nfc_BCH_ecc_correct
                0x03f8c6b8                nfc_BCH_ecc_check
                0x03f8c7b4                wmt_nand_reset
                0x03f8c814                set_ECC_mode
                0x03f8c8bc                update_bbt_inflash
                0x03f8cd38                creat_bbt
                0x03f8cf44                nand_readID
                0x03f8cfc4                nand_get_feature
                0x03f8d074                nand_set_feature
                0x03f8d11c                wmt_calc_clock
                0x03f8d464                wmt_get_timing
                0x03f8d548                get_parameter
                0x03f8d6a4                hynix_get_parameter
                0x03f8d8a4                set_parameter
                0x03f8da0c                dummy_read
                0x03f8db1c                hynix_set_parameter
                0x03f8dbe0                nand_reset_no_read_status
                0x03f8dc40                write_bytes_param
                0x03f8ddf4                hynix_get_otp
                0x03f8e0ac                toshiba_send_data
                0x03f8e1c0                toshiba_set_parameter
                0x03f8e234                toshiba_pre_condition
                0x03f8e29c                nfc_BCH_read_page
                0x03f8e6b4                read_retry_param_from_nand
                0x03f8e86c                write_retry_param_to_nand
                0x03f8e9b4                get_pattern_small
                0x03f8ea48                get_pattern_large
                0x03f8eadc                WMT_check_pattern
                0x03f8eb84                find_bbt
                0x03f8edb0                nand_probe
                0x03f8f734                check_block_table
                0x03f8f840                nand_erase
                0x03f8f994                WMTLoadImageFormNAND
                0x03f8fb84                nand_boot
                0x03f8fd58                eslc_load_image
                0x03f8ff94                WMTSaveImageToNAND
                0x03f90328                eslc_save_image
                0x03f9074c                WMTEraseNAND
                0x03f90aa0                tellme_whereistable
                0x03f90b6c                tellme_badblock
                0x03f90c50                WMTEraseNANDALL
                0x03f90d18                tellme_nandinfo
                0x03f90e58                do_nand
 .text          0x03f9183c      0x374 common/libcommon.a(cmd_net.o)
                0x03f9183c                do_ping
                0x03f91b74                do_nfs
                0x03f91b80                do_dhcp
                0x03f91b8c                do_rarpb
                0x03f91b98                do_tftpb
                0x03f91ba4                do_bootp
 .text          0x03f91bb0      0x854 common/libcommon.a(cmd_nvedit.o)
                0x03f91c24                do_saveenv
                0x03f91c50                do_printenv
                0x03f91dfc                _do_setenv
                0x03f92258                do_setenv
                0x03f92294                setenv
                0x03f922c8                getenv
                0x03f92348                getenv_r
 .text          0x03f92404     0x1070 common/libcommon.a(cmd_usb.o)
                0x03f9240c                do_usbboot
                0x03f927c8                usb_get_class_desc
                0x03f92874                usb_display_class_sub
                0x03f929e8                usb_display_string
                0x03f92a1c                usb_display_desc
                0x03f92b44                usb_display_conf_desc
                0x03f92bf0                usb_display_if_desc
                0x03f92c78                usb_display_ep_desc
                0x03f92d2c                usb_display_config
                0x03f92dbc                usb_show_tree_graph
                0x03f92fc8                usb_show_tree
                0x03f92ff8                do_usb
 .text          0x03f93474      0xcd4 common/libcommon.a(command.o)
                0x03f93474                do_echo
                0x03f934f4                do_version
                0x03f93514                var_complete
                0x03f9359c                do_exit
                0x03f935cc                do_test
                0x03f93a34                find_cmd
                0x03f93ac8                do_help
                0x03f93ca4                install_auto_complete
                0x03f93cd0                cmd_auto_complete
 .text          0x03f94148      0x57c common/libcommon.a(console.o)
                0x03f941ec                serial_printf
                0x03f94230                fgetc
                0x03f9425c                ftstc
                0x03f94288                fputc
                0x03f942b0                fputs
                0x03f942d8                fprintf
                0x03f94320                getc
                0x03f94338                tstc
                0x03f94350                putc
                0x03f9436c                puts
                0x03f94388                printf
                0x03f943cc                vprintf
                0x03f94400                ctrlc
                0x03f9444c                disable_ctrlc
                0x03f94464                had_ctrlc
                0x03f94474                clear_ctrlc
                0x03f94488                dbg
                0x03f94494                console_assign
                0x03f94524                console_init_f
                0x03f94534                console_init_r
 .text          0x03f946c4      0x11c common/libcommon.a(devices.o)
                0x03f946c4                device_register
                0x03f946e8                devices_init
                0x03f947c4                devices_done
 .text          0x03f947e0      0xfc4 common/libcommon.a(dlmalloc.o)
                0x03f947e0                malloc_bin_reloc
                0x03f9481c                malloc_trim
                0x03f948ec                free
                0x03f94b14                cfree
                0x03f94b18                malloc
                0x03f95090                calloc
                0x03f9516c                memalign
                0x03f9527c                pvalloc
                0x03f95294                valloc
                0x03f952a0                realloc
                0x03f956f0                malloc_usable_size
                0x03f95730                mallopt
 .text          0x03f957a4      0x268 common/libcommon.a(env_common.o)
                0x03f957a4                env_get_char_memory
                0x03f957e8                env_crc_update
                0x03f95810                env_get_addr
                0x03f95834                env_relocate
                0x03f958d0                env_complete
 .text          0x03f95a0c      0x394 common/libcommon.a(env_flash.o)
                0x03f95a0c                env_get_char_spec
                0x03f95a18                env_init
                0x03f95b1c                saveenv
                0x03f95c64                env_relocate_spec
 .text          0x03f95da0       0xb4 common/libcommon.a(exports.o)
                0x03f95da4                get_version
                0x03f95dac                jumptable_init
 .text          0x03f95e54      0x5a0 common/libcommon.a(wmt_cmd_display.o)
                0x03f95f30                display_init
                0x03f96070                display_clear
                0x03f9607c                controlGPIO
 .text          0x03f963f4      0x788 common/libcommon.a(minivgui.o)
                0x03f96448                mv_initPrimary
                0x03f964dc                mv_drawLine
                0x03f96578                mv_drawRect
                0x03f965e4                mv_fillRect
                0x03f96640                mv_le_to_cpu
                0x03f96660                mv_loadBmp
                0x03f969e4                mv_textOut
 .text          0x03f96b7c      0x564 common/libcommon.a(uboot-vpp.o)
                0x03f96b7c                vpp_mod_init
                0x03f96b94                vpp_device_init
                0x03f96bd8                wmt_graphic_init
 .text          0x03f970e0      0x120 common/libcommon.a(cmd_mbit.o)
                0x03f970e0                excute_reg_op
 .text          0x03f97200      0x258 common/libcommon.a(cmd_textout.o)
                0x03f97284                do_textout
 .text          0x03f97458      0x33c common/libcommon.a(env_parse.o)
                0x03f97458                parse_gpio_operation
                0x03f97524                parse_pwm_params
 .text          0x03f97794      0x37c common/libcommon.a(flash.o)
                0x03f97794                flash_protect
                0x03f97864                addr2info
                0x03f978d4                flash_write
                0x03f97a30                flash_perror
 .text          0x03f97b10     0x1bb8 common/libcommon.a(hush.o)
                0x03f9837c                simple_itoa
                0x03f983d8                new_pipe
                0x03f98484                reserved_word
                0x03f98724                mapset
                0x03f98748                update_ifs_map
                0x03f987b8                parse_string_outer
                0x03f9960c                parse_file_outer
                0x03f99650                u_boot_hush_start
 .text          0x03f996c8      0x3d0 common/libcommon.a(lists.o)
                0x03f996c8                NewHandle
                0x03f99724                DisposeHandle
                0x03f99744                GetHandleSize
                0x03f9974c                SetHandleSize
                0x03f997c8                ListCreate
                0x03f99828                ListSetAllocationPolicy
                0x03f9983c                ListDispose
                0x03f99840                ListInsertItems
                0x03f99a04                ListInsertItem
                0x03f99a0c                ListGetItems
                0x03f99a48                ListGetPtrToItem
                0x03f99a74                ListGetDataPtr
                0x03f99a80                ListGetItemSize
                0x03f99a8c                ListNumItems
 .text          0x03f99a98      0x510 common/libcommon.a(miiphyutil.o)
                0x03f99a98                miiphy_init
                0x03f99ab4                miiphy_register
                0x03f99b90                miiphy_set_current_dev
                0x03f99bec                miiphy_get_current_dev
                0x03f99c04                miiphy_read
                0x03f99c90                miiphy_write
                0x03f99d1c                miiphy_listdev
                0x03f99d84                miiphy_info
                0x03f99e08                miiphy_reset
                0x03f99ea8                miiphy_speed
                0x03f99f28                miiphy_duplex
 .text          0x03f99fa8      0x2e0 common/libcommon.a(s_record.o)
                0x03f9a01c                srec_decode
 .text          0x03f9a288     0x1700 common/libcommon.a(usb.o)
                0x03f9a2d0                wait_ms
                0x03f9a2f0                usb_disable_asynch
                0x03f9a310                usb_submit_int_msg
                0x03f9a314                usb_control_msg
                0x03f9a410                usb_bulk_msg
                0x03f9a480                usb_maxpacket
                0x03f9a4a0                usb_set_maxpacket
                0x03f9a4dc                usb_parse_config
                0x03f9a62c                usb_clear_halt
                0x03f9a6c8                usb_get_descriptor
                0x03f9a724                usb_get_configuration_no
                0x03f9a7b8                usb_set_address
                0x03f9a7f8                usb_set_interface
                0x03f9a8ac                usb_set_configuration
                0x03f9a924                usb_set_protocol
                0x03f9a974                usb_set_idle
                0x03f9a9cc                usb_get_report
                0x03f9aa30                usb_get_class_descriptor
                0x03f9aa94                usb_get_string
                0x03f9ac10                usb_string
                0x03f9ad14                usb_get_dev_index
                0x03f9ad40                usb_alloc_new_device
                0x03f9ae70                usb_get_hub_descriptor
                0x03f9aec4                usb_clear_hub_feature
                0x03f9af10                usb_clear_port_feature
                0x03f9af60                usb_set_port_feature
                0x03f9aff4                usb_get_hub_status
                0x03f9b040                usb_get_port_status
                0x03f9b090                usb_hub_reset
                0x03f9b0a4                usb_stop
                0x03f9b0e0                usb_hub_allocate
                0x03f9b124                hub_port_reset
                0x03f9b1c4                usb_new_device
                0x03f9b4a0                usb_scan_devices
                0x03f9b544                usb_init
                0x03f9b5e4                usb_hub_port_connect_change
                0x03f9b700                usb_hub_configure
                0x03f9b8fc                usb_hub_probe
                0x03f9b954                portspeed
 .text          0x03f9b988     0x1350 common/libcommon.a(usb_storage.o)
                0x03f9bc68                usb_stor_get_dev
                0x03f9bc7c                usb_show_progress
                0x03f9bc88                usb_stor_read
                0x03f9be70                usb_stor_info
                0x03f9bed8                usb_stor_BBB_comdat
                0x03f9bfb0                usb_stor_CB_comdat
                0x03f9c1fc                usb_stor_CBI_get_status
                0x03f9c2cc                usb_stor_CB_transport
                0x03f9c4cc                usb_stor_BBB_clear_endpt_stall
                0x03f9c518                usb_stor_BBB_transport
                0x03f9c6d0                usb_storage_probe
                0x03f9c8ac                usb_stor_get_info
                0x03f9cae4                usb_stor_scan
 .text          0x03f9ccd8      0x3c0 common/libcommon.a(pwm.o)
                0x03f9ccd8                lcd_blt_set_level
                0x03f9ccdc                lcd_blt_set_freq
                0x03f9cce0                pwm_set_control
                0x03f9cd20                pwm_set_scalar
                0x03f9cd5c                pwm_set_period
                0x03f9cd98                pwm_set_duty
                0x03f9cdd4                pwm_get_period
                0x03f9cdec                pwm_get_duty
                0x03f9ce04                set_lcd_power
                0x03f9ce90                pwm_set_gpio
                0x03f9cf5c                pwm_set_enable
                0x03f9cfb8                lcd_blt_enable
                0x03f9cfbc                lcd_blt_set_pwm
 .text          0x03f9d098     0x1618 common/libcommon.a(govrh.o)
                0x03f9d098                govrh_mod_suspend
                0x03f9d09c                govrh_mod_resume
                0x03f9d0a0                govrh2_mod_suspend
                0x03f9d0a4                govrh2_mod_resume
                0x03f9d0a8                govrh_set_tg_enable
                0x03f9d0e4                govrh_set_clock
                0x03f9d16c                govrh_set_tg1
                0x03f9d1e8                govrh_get_tg_mode
                0x03f9d1f8                govrh_set_tg2
                0x03f9d268                govrh_get_tg
                0x03f9d300                govrh2_mod_get_tg
                0x03f9d314                govrh_mod_get_tg
                0x03f9d328                govrh_get_hscale_up
                0x03f9d338                govrh_set_direct_path
                0x03f9d344                govrh_get_int_status
                0x03f9d358                govrh2_mod_get_sts
                0x03f9d368                govrh_mod_get_sts
                0x03f9d378                govrh_clean_int_status
                0x03f9d394                govrh2_mod_clr_sts
                0x03f9d3a8                govrh_mod_clr_sts
                0x03f9d3bc                govrh_set_int_enable
                0x03f9d3e8                govrh_set_dvo_enable
                0x03f9d454                govrh_set_dvo_sync_polar
                0x03f9d474                govrh_get_dvo_color_format
                0x03f9d4a0                govrh_set_dvo_color_format
                0x03f9d4f4                govrh_set_dvo_outdatw
                0x03f9d510                govrh_set_dvo_clock_delay
                0x03f9d53c                govrh_set_colorbar
                0x03f9d568                govrh2_mod_set_colorbar
                0x03f9d594                govrh_mod_set_colorbar
                0x03f9d5c0                govrh_set_contrast
                0x03f9d5f0                govrh_get_contrast
                0x03f9d600                govrh_set_brightness
                0x03f9d60c                govrh_get_brightness
                0x03f9d618                govrh_set_MIF_enable
                0x03f9d62c                govrh2_mod_set_enable
                0x03f9d640                govrh_mod_set_enable
                0x03f9d654                govrh_get_MIF_enable
                0x03f9d664                govrh_set_frame_mode
                0x03f9d6bc                govrh_set_color_format
                0x03f9d774                govrh2_mod_set_color_fmt
                0x03f9d788                govrh_mod_set_color_fmt
                0x03f9d79c                govrh_get_color_format
                0x03f9d7f0                govrh2_mod_get_color_fmt
                0x03f9d800                govrh_mod_get_color_fmt
                0x03f9d810                govrh_reg_dump
                0x03f9dbec                govrh2_mod_dump_reg
                0x03f9dbfc                govrh_mod_dump_reg
                0x03f9dc0c                govrh_set_source_format
                0x03f9dc24                govrh_set_output_format
                0x03f9dc3c                govrh_set_fb_addr
                0x03f9dc4c                govrh2_mod_set_addr
                0x03f9dc68                govrh_mod_set_addr
                0x03f9dc84                govrh_get_fb_addr
                0x03f9dc9c                govrh2_mod_get_addr
                0x03f9dcb8                govrh_mod_get_addr
                0x03f9dcd4                govrh_set_fb2_addr
                0x03f9dce4                govrh_get_fb2_addr
                0x03f9dcfc                govrh_set_fb_width
                0x03f9dd08                govrh_set_fb_info
                0x03f9dd44                govrh_get_fb_info
                0x03f9dd70                govrh_set_fifo_index
                0x03f9dd7c                govrh_set_reg_level
                0x03f9dd98                govrh_set_reg_update
                0x03f9ddac                govrh_set_tg
                0x03f9ddf0                govrh2_mod_set_tg
                0x03f9de0c                govrh_mod_set_tg
                0x03f9de28                govrh_set_timing
                0x03f9df8c                govrh_set_csc_mode
                0x03f9e150                govrh2_mod_set_csc
                0x03f9e164                govrh_mod_set_csc
                0x03f9e178                govrh_set_framebuffer
                0x03f9e1e4                govrh2_mod_set_framebuf
                0x03f9e1f8                govrh_mod_set_framebuf
                0x03f9e20c                govrh_init
                0x03f9e2c0                govrh_get_framebuffer
                0x03f9e33c                govrh_set_media_format
                0x03f9e350                govrh_HDMI_set_blank_value
                0x03f9e368                govrh_HDMI_set_3D_mode
                0x03f9e37c                govrh_is_top_field
                0x03f9e390                govrh_IGS_set_mode
                0x03f9e3d8                govrh_IGS_set_RGB_swap
                0x03f9e3ec                govrh_suspend
                0x03f9e3f0                govrh_resume
                0x03f9e3f4                govrh_mod_init
 .text          0x03f9e6b0      0xfec common/libcommon.a(vout.o)
                0x03f9e6b0                vout_print_entry
                0x03f9e7cc                vout_register
                0x03f9e800                vout_get_entry
                0x03f9e818                vout_get_info_entry
                0x03f9e870                vout_change_status
                0x03f9e8a4                vout_query_inf_support
                0x03f9e8e4                vout_inf_register
                0x03f9e954                vout_inf_get_entry
                0x03f9e994                vout_device_register
                0x03f9e9d4                vout_get_device
                0x03f9e9ec                vout_get_entry_adapter
                0x03f9ea08                vout_get_inf_entry_adapter
                0x03f9ea54                vout_info_add_entry
                0x03f9eba0                vout_info_get_entry
                0x03f9ebf8                vout_info_set_fixed_timing
                0x03f9ec0c                vout_check_ratio_16_9
                0x03f9ec2c                vout_find_edid_support_mode
                0x03f9ed68                vout_set_framebuffer
                0x03f9ede4                vout_set_tg_enable
                0x03f9ee50                vout_set_blank
                0x03f9ef5c                vout_set_mode
                0x03f9f048                vout_chkplug
                0x03f9f0c8                vout_inf_chkplug
                0x03f9f120                vout_get_edid
                0x03f9f1e0                vout_find_video_mode
                0x03f9f480                vout_config
                0x03f9f590                vout_check_info
                0x03f9f614                vout_get_edid_option
                0x03f9f660                vout_get_mask
 .text          0x03f9f69c      0x370 common/libcommon.a(lcd.o)
                0x03f9f69c                lcd_check_plugin
                0x03f9f6b4                lcd_get_edid
                0x03f9f6bc                lcd_config
                0x03f9f6e8                lcd_set_power_down
                0x03f9f700                lcd_set_parm
                0x03f9f710                lcd_get_dev
                0x03f9f72c                lcd_panel_register
                0x03f9f758                lcd_get_parm
                0x03f9f788                lcd_init
                0x03f9f800                lcd_set_mode
                0x03f9f9d4                lcd_module_init
 .text          0x03f9fa0c      0x358 common/libcommon.a(lvds.o)
                0x03f9fa0c                lvds_set_power_down
                0x03f9fa50                lvds_set_enable
                0x03f9fac4                lvds_get_enable
                0x03f9fad8                lvds_set_rgb_type
                0x03f9fb30                lvds_get_colfmt
                0x03f9fb38                lvds_set_sync_polar
                0x03f9fb70                lvds_reg_dump
                0x03f9fcc4                lvds_init
 .text          0x03f9fd64     0x186c common/libcommon.a(vpp.o)
                0x03f9fd64                vpp_get_chipid
                0x03f9fd74                vpp_cache_sync
                0x03f9fd78                vpp_set_dbg_gpio
                0x03f9fe40                vpp_check_dbg_level
                0x03f9fe84                vpp_mod_unregister
                0x03f9fed4                vpp_mod_register
                0x03f9ff88                vpp_mod_get_base
                0x03f9ffa4                vpp_mod_get_fb_base
                0x03f9ffb8                vpp_mod_get_framebuf
                0x03f9ffcc                vpp_mod_set_clock
                0x03fa0044                vpp_get_fb_field
                0x03fa0050                vpp_get_base_clock
                0x03fa0080                vpp_calculate_diff
                0x03fa0090                vpp_check_value
                0x03fa00b0                vpp_show_timing
                0x03fa0178                vpp_show_framebuf
                0x03fa0218                vpp_show_view
                0x03fa028c                vpp_trans_timing
                0x03fa03e8                vpp_mod_set_timing
                0x03fa0474                vpp_check_csc_mode
                0x03fa04bc                vpp_get_gcd
                0x03fa04d4                vpp_check_scale_ratio
                0x03fa0620                vpp_calculate_scale_ratio
                0x03fa07f0                vpp_check_bilinear_arg
                0x03fa08b8                vpp_get_video_mode_fps
                0x03fa095c                vpp_get_video_mode
                0x03fa0b14                vpp_get_video_mode_ext
                0x03fa0b40                vpp_set_video_quality
                0x03fa0b44                vpp_set_vppm_int_enable
                0x03fa0b48                vpp_reg_dump
                0x03fa0bbc                vpp_convert_colfmt
                0x03fa0d30                vpp_backup_reg
                0x03fa0d80                vpp_restore_reg
                0x03fa0dc0                vpp_backup_reg2
                0x03fa0dec                vpp_restore_reg2
                0x03fa0e1c                vpp_get_sys_parameter
                0x03fa1064                vpp_init
                0x03fa1284                vpp_config
                0x03fa13f0                vpp_get_colfmt_bpp
                0x03fa148c                vpp_clr_framebuf
                0x03fa1568                vpp_calc_align
                0x03fa1590                vpp_calc_fb_width
 .text          0x03fa15d0     0x1b78 common/libcommon.a(hdmi.o)
                0x03fa15d0                hdmi_reg32_write
                0x03fa1628                hdmi_ecc
                0x03fa1728                hdmi_checksum
                0x03fa1774                hdmi_set_enable
                0x03fa17a4                hdmi_set_dvi_enable
                0x03fa17bc                hdmi_set_sync_low_active
                0x03fa17f4                hdmi_set_output_colfmt
                0x03fa1848                hdmi_get_output_colfmt
                0x03fa1880                hdmi_get_plugin
                0x03fa1894                hdmi_get_plug_status
                0x03fa18ac                hdmi_clear_plug_status
                0x03fa18e0                hdmi_enable_plugin
                0x03fa1918                hdmi_write_fifo
                0x03fa1994                hdmi_read_fifo
                0x03fa1a00                hdmi_DDC_check_status
                0x03fa1ab4                hdmi_DDC_set_freq
                0x03fa1ae8                hdmi_DDC_reset
                0x03fa1b24                hdmi_DDC_read_func
                0x03fa1dd0                hdmi_DDC_read
                0x03fa1e28                hdmi_audio_enable
                0x03fa1e40                hdmi_audio_mute
                0x03fa1e58                hdmi_write_packet
                0x03fa1f14                hdmi_tx_null_packet
                0x03fa1f24                hdmi_tx_general_control_packet
                0x03fa1f68                hdmi_get_pic_aspect
                0x03fa1f88                hdmi_tx_avi_infoframe_packet
                0x03fa2044                hdmi_tx_audio_infoframe_packet
                0x03fa20b4                hdmi_tx_vendor_specific_infoframe_packet
                0x03fa2164                hdmi_set_audio_n_cts
                0x03fa2210                hdmi_config_audio
                0x03fa23ec                hdmi_config_video
                0x03fa240c                hdmi_set_option
                0x03fa2490                hdmi_config
                0x03fa25d8                hdmi_set_cp_enable
                0x03fa2610                hdmi_poll_cp_status
                0x03fa2634                hdmi_check_cp_int
                0x03fa2658                hdmi_get_bksv
                0x03fa267c                hdmi_check_plugin
                0x03fa270c                hdmi_reg_dump
                0x03fa2f9c                hdmi_set_cypher
                0x03fa2fe0                hdmi_init
 .text          0x03fa3148     0x1c18 common/libcommon.a(parse-edid.o)
                0x03fa3184                edid_dump
                0x03fa31e4                edid_checksum
                0x03fa3210                edid_parse
                0x03fa4b3c                edid_find_support
                0x03fa4d48                edid_get_hdmi_phy_addr
 .text          0x03fa4d60     0x1304 common/libcommon.a(vout-wmt.o)
                0x03fa510c                vo_i2c_proc
                0x03fa51a0                vout_set_int_type
                0x03fa51d0                vo_dvi_initial
                0x03fa51ec                vo_hdmi_set_clock
                0x03fa5390                vo_hdmi_cp_set_enable_tmr
                0x03fa5520                vo_hdmi_initial
                0x03fa553c                vo_lvds_initial
                0x03fa5558                vout_init_param
                0x03fa565c                vout_check_display_info
                0x03fa5a14                vout_check_ext_device
                0x03fa5d88                vout_check_monitor_resolution
                0x03fa5f00                vout_init
                0x03fa605c                vout_exit
 .text          0x03fa6064       0x88 common/libcommon.a(lcd-oem.o)
                0x03fa6064                lcd_oem_get_parm
                0x03fa607c                lcd_oem_init
                0x03fa608c                lcd_get_oem_parm
 .text          0x03fa60ec       0x28 common/libcommon.a(lcd-AUO-A080SN01.o)
                0x03fa60ec                lcd_a080sn01_get_parm
                0x03fa6104                lcd_a080sn01_init
 .text          0x03fa6114       0x24 common/libcommon.a(lcd-INNOLUX-AT070TN83.o)
                0x03fa611c                lcd_at070tn83_get_parm
                0x03fa6128                lcd_at070tn83_init
 .text          0x03fa6138       0x3c common/libcommon.a(lcd-CHILIN-LW700at9003.o)
                0x03fa6138                lcd_lw700at9003_get_parm
                0x03fa6164                lcd_lw700at9003_init
 .text          0x03fa6174       0x34 common/libcommon.a(lcd-EKING-EK08009-70135.o)
                0x03fa6174                lcd_ek08009_get_parm
                0x03fa6198                lcd_ek08009_init
 .text          0x03fa61a8       0x34 common/libcommon.a(lcd-HANNSTAR-HSD101PFW2.o)
                0x03fa61a8                lcd_HSD101PFW2_get_parm
                0x03fa61cc                lcd_HSD101PFW2_init
 .text          0x03fa61dc      0x230 common/libcommon.a(vt1632.o)
                0x03fa61dc                vt1632_config
                0x03fa61e4                vt1632_get_edid
                0x03fa61ec                vt1632_set_power_down
                0x03fa6258                vt1632_set_mode
                0x03fa62dc                vt1632_init
                0x03fa6378                vt1632_check_plugin
                0x03fa63ec                vt1632_interrupt
                0x03fa63f4                vt1632_module_init
 .text          0x03fa640c        0x8 common/libcommon.a(sil902x.o)
                0x03fa640c                sil902x_module_init
 .text          0x03fa6414      0x4b8 common/libcommon.a(cs8556.o)
                0x03fa6414                cs8556_config
                0x03fa6434                cs8556_set_power_down
                0x03fa6460                cs8556_set_mode
                0x03fa64ac                getcs8556_TvEncoderParam
                0x03fa6584                cs8556_getTable0
                0x03fa6590                cs8556_getTable1
                0x03fa659c                cs8556_i2c_read
                0x03fa65d0                cs8556_i2c_write
                0x03fa6600                cs8556_dumpRegs
                0x03fa6710                cs8556_isEnable
                0x03fa6728                cs8556_check_plugin
                0x03fa674c                cs8556_reinitialize_table
                0x03fa67d0                cs8556_init
                0x03fa6890                cs8556_interrupt
                0x03fa68b4                cs8556_module_init
 .text          0x03fa68cc      0x180 common/libcommon.a(wmt-ost.o)
                0x03fa68cc                wmt_write_ostc
                0x03fa6910                wmt_init_ost
                0x03fa6970                wmt_read_ostc
                0x03fa6a08                wmt_delayus
 .text          0x03fa6a4c      0x4e0 common/libcommon.a(vpp-osif.o)
                0x03fa6a4c                inl
                0x03fa6a54                outl
                0x03fa6a5c                vppif_reg8_in
                0x03fa6a64                vppif_reg8_out
                0x03fa6a70                vppif_reg16_in
                0x03fa6a78                vppif_reg16_out
                0x03fa6a84                vppif_reg32_in
                0x03fa6a88                vppif_reg32_out
                0x03fa6aa8                vppif_reg32_write
                0x03fa6ae0                vppif_reg32_read
                0x03fa6afc                vppif_reg32_mask
                0x03fa6b04                vpp_request_irq
                0x03fa6b0c                vpp_free_irq
                0x03fa6b10                wmt_getsyspara
                0x03fa6b68                vpp_parse_param
                0x03fa6bfc                vpp_lock
                0x03fa6c00                vpp_unlock
                0x03fa6c04                vpp_i2c_xfer
                0x03fa6c08                vpp_i2c_init
                0x03fa6c1c                vpp_i2c_release
                0x03fa6c24                vpp_i2c_set_lock
                0x03fa6c28                vpp_i2c_enhanced_ddc_read
                0x03fa6d3c                vpp_i2c_read
                0x03fa6e48                vpp_i2c_write
                0x03fa6f20                DelayMS
 .text          0x03fa6f2c      0x8b4 common/libcommon.a(sw_i2c.o)
                0x03fa6f34                wmt_swi2c_lock
                0x03fa6f38                wmt_swi2c_delay
                0x03fa6f3c                wmt_swi2c_SetSDAInput
                0x03fa6f78                wmt_swi2c_SetSDAOutput
                0x03fa6fb4                wmt_swi2c_GetSDA
                0x03fa6fdc                wmt_swi2c_GetSCL
                0x03fa7004                wmt_swi2c_SetSDA
                0x03fa70ac                wmt_swi2c_SetSCL
                0x03fa7154                wmt_swi2c_SetData
                0x03fa71a0                wmt_swi2c_SetClock
                0x03fa71f8                wmt_swi2c_StartI2C
                0x03fa7254                wmt_swi2c_StopI2C
                0x03fa72ac                wmt_swi2c_WriteAck
                0x03fa7330                wmt_swi2c_ReadAck
                0x03fa73fc                wmt_swi2c_tx
                0x03fa7458                wmt_swi2c_rx
                0x03fa74c0                wmt_swi2c_reg_bk
                0x03fa752c                wmt_swi2c_read
                0x03fa7600                wmt_swi2c_write
                0x03fa76ac                wmt_swi2c_check
 .text          0x03fa77e0      0x104 lib_generic/libgeneric.a(crc32.o)
                0x03fa77e0                crc32
 .text          0x03fa78e4        0x0 lib_generic/libgeneric.a(ctype.o)
 .text          0x03fa78e4       0xbc lib_generic/libgeneric.a(display_options.o)
                0x03fa78e4                display_options
                0x03fa7904                print_size
 .text          0x03fa79a0      0x584 lib_generic/libgeneric.a(string.o)
                0x03fa79bc                strnicmp
                0x03fa7a30                strcpy
                0x03fa7a48                strncpy
                0x03fa7a68                strcat
                0x03fa7a94                strncat
                0x03fa7adc                strcmp
                0x03fa7b04                strncmp
                0x03fa7b40                strchr
                0x03fa7b74                strlen
                0x03fa7b90                strrchr
                0x03fa7bcc                strnlen
                0x03fa7bf0                strdup
                0x03fa7c24                strspn
                0x03fa7c64                strpbrk
                0x03fa7ca0                strtok
                0x03fa7d18                strsep
                0x03fa7d4c                strswab
                0x03fa7d98                memset
                0x03fa7db0                bcopy
                0x03fa7dd0                memcpy
                0x03fa7dec                memmove
                0x03fa7e30                memcmp
                0x03fa7e68                memscan
                0x03fa7e90                strstr
                0x03fa7ef0                memchr
 .text          0x03fa7f24      0x860 lib_generic/libgeneric.a(vsprintf.o)
                0x03fa8180                simple_strtoul
                0x03fa8238                simple_strtol
                0x03fa8260                simple_strtoull
                0x03fa8348                vsprintf
                0x03fa8714                sprintf
                0x03fa8738                panic
 .text          0x03fa8784     0x2b80 lib_generic/libgeneric.a(zlib.o)
                0x03fa9040                adler32
                0x03fa9314                inflateReset
                0x03fa9370                inflateEnd
                0x03fa9404                inflateInit2
                0x03fa9554                inflateInit
                0x03fa955c                inflate
                0x03fab0d8                inflateIncomp
                0x03fab208                inflateSync
 .text          0x03fab304       0x50 board/wmt/libwmt.a(wmt.o)
                0x03fab304                board_init
                0x03fab32c                misc_init_r
                0x03fab334                dram_init
                0x03fab350                __aeabi_unwind_cpp_pr0
 .text          0x03fab354      0x440 board/wmt/libwmt.a(flash.o)
                0x03fab354                get_boot_flash_type
                0x03fab3ec                get_boot_nor_flash_bit_type
                0x03fab41c                get_boot_nand_flash_bit_type
                0x03fab460                flash_init
                0x03fab68c                flash_print_info
                0x03fab6d8                flash_erase
                0x03fab72c                write_buff
 .text          0x03fab794       0x24 board/wmt/libwmt.a(main.o)
                0x03fab794                wmt_post
 .text          0x03fab7b8      0x6c4 board/wmt/libwmt.a(spi_flash.o)
                0x03fab884                spi_flash_init
                0x03fabb84                spi_flash_print_info
                0x03fabc3c                spi_flash_erase
                0x03fabe20                spi_write_buff
 .text          0x03fabe7c       0x1c board/wmt/libwmt.a(nand_flash.o)
                0x03fabe7c                nand_flash_init
                0x03fabe84                nand_flash_print_info
                0x03fabe88                nand_flash_erase
                0x03fabe90                nand_write_buff
 .text          0x03fabe98      0xd0c board/wmt/libwmt.a(nor_flash_8bit.o)
                0x03fabed4                nor_flash_8b_init
                0x03fac3a4                nor_flash_8b_print_info
                0x03fac68c                nor_flash_8b_erase
                0x03fac900                nor_flash_8b_write_buff
 .text          0x03facba4     0x1134 board/wmt/libwmt.a(nor_flash_16bit.o)
                0x03facbd4                nor_flash_16b_init
                0x03fad4d0                nor_flash_16b_print_info
                0x03fad714                nor_flash_16b_erase
                0x03fad98c                nor_flash_16b_write_buff
 .text          0x03fadcd8      0xe6c board/wmt/libwmt.a(wmt_clk.o)
                0x03fae068                auto_pll_divisor
                0x03fae988                manu_pll_divisor
 .text          0x03faeb44     0x10d0 board/wmt/libwmt.a(ehci-hcd.o)
                0x03faeca0                ehci_submit_root
                0x03faf11c                ehci_hcd_init
                0x03faf140                ehci_hcd_stop
                0x03faf150                usb_lowlevel_stop
                0x03faf154                strtochar
                0x03faf17c                ehci_config_port_owner
                0x03faf318                ehci_disable_port_owner
                0x03faf39c                ehci_detect_device
                0x03faf464                ehci_enable_port
                0x03faf54c                usb_ehci_initial
                0x03faf57c                submit_int_msg
                0x03faf584                usb_check_td
                0x03faf5cc                usb_check_bulk_td
                0x03faf998                submit_control_msg
                0x03faf9c8                submit_bulk_msg
                0x03faf9fc                parse_usb_param
                0x03fafab0                usb_lowlevel_init
 .text          0x03fafc14     0x1448 board/wmt/libwmt.a(usb_uhci.o)
                0x03fafcf0                usb_fill_td
                0x03fafd10                usb_fill_qh
                0x03fafd30                usb_uhci_td_stat
                0x03fafd84                usb_get_td_status
                0x03fafe40                submit_uhci_control_msg
                0x03faffe0                submit_uhci_bulk_msg
                0x03fb0164                uhci_alloc_int_td
                0x03fb01a4                submit_uhci_int_msg
                0x03fb0298                reset_hc
                0x03fb02d8                start_hc
                0x03fb0458                reset_hc2
                0x03fb0498                start_hc2
                0x03fb0604                usb_init_skel
                0x03fb0744                usb_check_skel
                0x03fb07ac                usb_check_int_chain
                0x03fb0890                handle_usb_interrupt
                0x03fb08ec                uhci_lowlevel_init
                0x03fb09a0                uhci_lowlevel_stop
                0x03fb09d4                uhci_submit_rh_msg
 .text          0x03fb105c      0x6ec board/wmt/libwmt.a(wmt_i2c.o)
                0x03fb10bc                i2c_init
                0x03fb11b0                i2c_transfer
                0x03fb1558                i2c_probe
                0x03fb1560                i2c_read
                0x03fb15fc                i2c_write
                0x03fb16b0                i2c_reg_read
                0x03fb16d0                i2c_reg_write
                0x03fb16f0                wmt_i2c_transfer
 .text          0x03fb1748      0x67c board/wmt/libwmt.a(wmt_i2c_1.o)
                0x03fb17a8                i2c1_init
                0x03fb1860                i2c1_transfer
                0x03fb1c08                i2c1_probe
                0x03fb1c10                i2c1_read
                0x03fb1cd0                i2c1_write
                0x03fb1d84                i2c1_reg_read
                0x03fb1da4                i2c1_reg_write
 .text          0x03fb1dc4      0x64c board/wmt/libwmt.a(wmt_i2c_2.o)
                0x03fb1e24                i2c2_init
                0x03fb1ed0                i2c2_transfer
                0x03fb2278                i2c2_probe
                0x03fb2280                i2c2_read
                0x03fb231c                i2c2_write
                0x03fb23d0                i2c2_reg_read
                0x03fb23f0                i2c2_reg_write
 .text          0x03fb2410      0x654 board/wmt/libwmt.a(wmt_i2c_3.o)
                0x03fb2470                i2c3_init
                0x03fb2524                i2c3_transfer
                0x03fb28cc                i2c3_probe
                0x03fb28d4                i2c3_read
                0x03fb2970                i2c3_write
                0x03fb2a24                i2c3_reg_read
                0x03fb2a44                i2c3_reg_write
 .text          0x03fb2a64       0xd8 cpu/arm920t/libarm920t.a(cpu.o)
                0x03fb2aa0                cpu_init
                0x03fb2aa8                cleanup_before_linux
                0x03fb2adc                do_reset
                0x03fb2af4                icache_enable
                0x03fb2b10                icache_disable
                0x03fb2b2c                icache_status
 .text          0x03fb2b3c      0x188 cpu/arm920t/wmt/libwmt.a(serial.o)
                0x03fb2b3c                serial_putc
                0x03fb2b6c                serial_puts
                0x03fb2b8c                serial_getc
                0x03fb2bb0                serial_tstc
                0x03fb2bc8                serial_setbrg
                0x03fb2c98                serial_init
 .text          0x03fb2cc4       0x38 cpu/arm920t/wmt/libwmt.a(ether.o)
                0x03fb2cc4                eth_init
                0x03fb2cc8                eth_send
                0x03fb2ccc                eth_rx
                0x03fb2cd0                eth_halt
                0x03fb2cd4                wmt_miiphy_read
                0x03fb2ce4                wmt_miiphy_write
                0x03fb2cf4                wmt_miiphy_initialize
 .text          0x03fb2cfc      0x398 cpu/arm920t/wmt/libwmt.a(macif.o)
                0x03fb2cfc                mac_startio
                0x03fb2db8                mac_send
                0x03fb2f2c                mac_receive
                0x03fb3030                mac_halt
                0x03fb3034                mii_read
                0x03fb3064                mii_write
 .text          0x03fb3094      0x718 cpu/arm920t/wmt/libwmt.a(adapter.o)
                0x03fb3094                ADPbShutdown
                0x03fb30d8                ADPuInitAll
                0x03fb3364                CARDvSetLoopbackMode
                0x03fb3390                CARDvSetMediaLinkMode
                0x03fb3580                ADPbInitializeEx
                0x03fb36cc                ADPbBind
 .text          0x03fb37ac      0x434 cpu/arm920t/wmt/libwmt.a(alloct.o)
                0x03fb37ac                ALCbAllocateRdrMemory
                0x03fb387c                ALCbAllocateTdrBuffer
                0x03fb3900                ALCbAllocateTdrMemory
                0x03fb3978                ALCvChainRdrMemory
                0x03fb3a04                ALCvChainTdrMemory
                0x03fb3a98                ALCvFreeRdrMemory
                0x03fb3adc                ALCvFreeTdrMemory
                0x03fb3b20                ALCvSetDefaultRD
                0x03fb3b24                ALCvSetDefaultTD
 .text          0x03fb3be0      0x5e8 cpu/arm920t/wmt/libwmt.a(mii.o)
                0x03fb3be0                MIIbReadEmbedded
                0x03fb3c4c                MIIbIsRegBitsOn
                0x03fb3c7c                MIIbIsAutoNegotiationOn
                0x03fb3c88                MIIbIsRegBitsOff
                0x03fb3cb4                MIIbIsInFullDuplexMode
                0x03fb3ddc                MIIbIsIn100MMode
                0x03fb3f00                MIIbWriteEmbedded
                0x03fb3f68                MIIvInitialize
                0x03fb403c                MIIvSetLoopbackMode
                0x03fb4168                MIIvWaitForNwayCompleted
 .text          0x03fb41c8       0xa0 cpu/arm920t/wmt/libwmt.a(mem.o)
                0x03fb41c8                MEMvAlign
                0x03fb4204                MEMvAllocateShared
                0x03fb4260                MEMvCopy
                0x03fb4264                MEMvSet
 .text          0x03fb4268       0xec cpu/arm920t/wmt/libwmt.a(vpci.o)
                0x03fb4268                VPCIvReadB
                0x03fb4278                VPCIvReadW
                0x03fb4288                VPCIvReadD
                0x03fb4298                VPCIvWriteB
                0x03fb42a4                VPCIvRegBitsOff
                0x03fb42d4                VPCIvRegBitsOn
                0x03fb4304                VPCIvInitialize
                0x03fb433c                VPCIvWriteW
                0x03fb4348                VPCIvWriteD
 .text          0x03fb4354      0xc90 cpu/arm920t/wmt/libwmt.a(dma.o)
                0x03fb4354                disable_dma
                0x03fb4370                enable_dma
                0x03fb43a4                request_dma
                0x03fb44a8                clear_dma
                0x03fb4518                free_dma
                0x03fb45a0                setup_dma
                0x03fb46b4                dma_busy
                0x03fb4704                dma_complete
                0x03fb475c                handle_dma_irq
                0x03fb47bc                prepare_dma_descript
                0x03fb484c                start_dma
                0x03fb494c                prepare_dma_long_descript
                0x03fb4994                wake_dma_channel
                0x03fb49b4                add_descript
                0x03fb4a20                init_descriptstack
                0x03fb4ad0                reset_descriptstack
                0x03fb4b10                free_descriptstack
                0x03fb4b34                init_dma
                0x03fb4ca0                set_descript
                0x03fb4e50                handle_transfer
 .text          0x03fb4fe4     0x30f0 cpu/arm920t/wmt/libwmt.a(mmc.o)
                0x03fb4fe4                Change_SD_host
                0x03fb515c                SD_Init_PDMA
                0x03fb5190                sd_init_long_desc
                0x03fb51ec                sd_pdma_handler
                0x03fb52bc                sd_free_pdma
                0x03fb52d8                card_nop
                0x03fb52dc                sd_command
                0x03fb53e8                sd_send_scr
                0x03fb5460                sd_app_command
                0x03fb54f8                sd_alloc_desc_pool
                0x03fb5500                sd_init_short_desc
                0x03fb5534                sd_init_short_desc_with_end
                0x03fb5558                sd_config_desc
                0x03fb5598                sd_dump_memory
                0x03fb559c                sd_config_pdma
                0x03fb55dc                sdmmcSwitch
                0x03fb5788                sdmmcSendExCSD
                0x03fb5854                SD_Init
                0x03fb64fc                SD_Initialization
                0x03fb6568                mmc_get_dev
                0x03fb65b4                mmc_block_read_singleblock
                0x03fb669c                mmc_block_read_multiblock
                0x03fb6934                mmc_bread
                0x03fb69c4                mmc_block_write_singleblock
                0x03fb6b14                mmc_block_write_multiblock
                0x03fb6dc8                mmc_bwrite
                0x03fb6e60                mmc_read
                0x03fb6f00                mmc_write
                0x03fb6f08                sd_set_clock
                0x03fb745c                mmc_ident
                0x03fb7464                mmc2info
                0x03fb7478                get_chip_version
                0x03fb7528                SD_Controller_Powerup
                0x03fb7e04                mmc_init
                0x03fb8078                SD_card_inserted
 .text          0x03fb80d4      0x6f4 cpu/arm920t/wmt/libwmt.a(mac.o)
                0x03fb80d4                MACbIsIn100MMode
                0x03fb8104                MACbIsRegBitsOff
                0x03fb8118                MACbIsCableLinkOk
                0x03fb8124                MACbIsRegBitsOn
                0x03fb813c                MACvIsInFullDuplexMode
                0x03fb815c                MACbStop
                0x03fb819c                MACbSafeTxOff
                0x03fb81f4                MACbyReadEECSR
                0x03fb81fc                MACbyReadMIICR
                0x03fb8204                MACbyReadMultiAddr
                0x03fb8210                MACvWriteMultiAddr
                0x03fb821c                MACvIntDisable
                0x03fb822c                MACvIntEnable
                0x03fb823c                MACvEnableMiiAutoPoll
                0x03fb8288                MACvSafeDisableMiiAutoPoll
                0x03fb82b4                MACvReadISR
                0x03fb82c8                MACvWriteISR
                0x03fb82d8                MACvRestoreContext
                0x03fb8350                MACvSaveContext
                0x03fb83c4                MACvSetDmaLength
                0x03fb83d8                MACvSetDuplexMode
                0x03fb8404                MACvSetLoopbackMode
                0x03fb8418                MACbSafeRxOff
                0x03fb84a8                MACvSetPacketFilter
                0x03fb850c                MACvSetRxThreshold
                0x03fb8530                MACvGetTxThreshold
                0x03fb8550                MACvSetTxThreshold
                0x03fb8574                MACvTimer0MicroSDelay
                0x03fb85b0                MACvTimer0MiniSDelay
                0x03fb85ec                MACbSoftwareReset
                0x03fb865c                MACvInitialize
                0x03fb8710                MACbSafeSoftwareReset
                0x03fb8754                MACbSafeStop
                0x03fb87ac                MACvWriteEECSR
                0x03fb87bc                MACbyGetPhyId
 .text          0x03fb87c8      0x44c lib_arm/libarm.a(armlinux.o)
                0x03fb88d4                do_bootm_linux
 .text          0x03fb8c14        0x4 lib_arm/libarm.a(cache.o)
                0x03fb8c14                flush_cache
 .text          0x03fb8c18     0x1bcc fs/fat/libfat.a(fat.o)
                0x03fb8e6c                disk_read
                0x03fb9450                disk_write
                0x03fb9580                fat_register_device
                0x03fb96cc                do_fat_read
                0x03fba038                do_fat_write
                0x03fba624                file_fat_detectfs
                0x03fba768                file_fat_ls
                0x03fba778                file_fat_read
                0x03fba7b0                file_fat_write
 .text          0x03fba7e4      0x2a8 disk/libdisk.a(part.o)
                0x03fba7e4                dev_print
                0x03fba984                init_part
                0x03fba9a0                get_partition_info
                0x03fba9c8                print_part
 .text          0x03fbaa8c      0x4c4 disk/libdisk.a(part_dos.o)
                0x03fbaeb0                test_part_dos
                0x03fbaf04                print_part_dos
                0x03fbaf30                get_partition_info_dos
 .text          0x03fbaf50       0x74 cpu/arm920t/wmt/libwmt.a(zde.o)
                0x03fbaf50                semi_bootloados
 .text          0x03fbafc4      0x20c /home/pd2/toolchain/arm_201103_gcc4.5.2/bin/../lib/gcc/arm-none-linux-gnueabi/4.5.2/libgcc.a(_udivsi3.o)
                0x03fbafc4                __udivsi3
                0x03fbafc4                __aeabi_uidiv
                0x03fbb1b0                __aeabi_uidivmod
 .text          0x03fbb1d0      0x240 /home/pd2/toolchain/arm_201103_gcc4.5.2/bin/../lib/gcc/arm-none-linux-gnueabi/4.5.2/libgcc.a(_divsi3.o)
                0x03fbb1d0                __aeabi_idiv
                0x03fbb1d0                __divsi3
                0x03fbb3f0                __aeabi_idivmod
 .text          0x03fbb410       0x1c /home/pd2/toolchain/arm_201103_gcc4.5.2/bin/../lib/gcc/arm-none-linux-gnueabi/4.5.2/libgcc.a(_lshrdi3.o)
                0x03fbb410                __aeabi_llsr
                0x03fbb410                __lshrdi3
 .text          0x03fbb42c       0x1c /home/pd2/toolchain/arm_201103_gcc4.5.2/bin/../lib/gcc/arm-none-linux-gnueabi/4.5.2/libgcc.a(_ashldi3.o)
                0x03fbb42c                __ashldi3
                0x03fbb42c                __aeabi_llsl
 .text          0x03fbb448       0x10 /home/pd2/toolchain/arm_201103_gcc4.5.2/bin/../lib/gcc/arm-none-linux-gnueabi/4.5.2/libgcc.a(_dvmd_lnx.o)
                0x03fbb448                __aeabi_ldiv0
                0x03fbb448                __aeabi_idiv0

.glue_7         0x03fbb458        0x0
 .glue_7        0x00000000        0x0 linker stubs

.glue_7t        0x03fbb458        0x0
 .glue_7t       0x00000000        0x0 linker stubs

.vfp11_veneer   0x03fbb458        0x0
 .vfp11_veneer  0x00000000        0x0 linker stubs

.v4_bx          0x03fbb458        0x0
 .v4_bx         0x00000000        0x0 linker stubs
                0x03fbb458                . = ALIGN (0x4)

.rodata         0x03fbb458     0x21a0
 *(.rodata)
 .rodata        0x03fbb458       0x80 cpu/arm920t/libarm920t.a(interrupts.o)
 .rodata        0x03fbb4d8       0x26 lib_arm/libarm.a(board.o)
                0x03fbb4d8                version_string
 .rodata        0x03fbb4fe        0x7 net/libnet.a(net.o)
 *fill*         0x03fbb505        0x3 00
 .rodata        0x03fbb508       0xb4 common/libcommon.a(cmd_bootm.o)
 .rodata        0x03fbb5bc       0x58 common/libcommon.a(cmd_mem.o)
 .rodata        0x03fbb614       0x10 common/libcommon.a(cmd_dma.o)
 .rodata        0x03fbb624      0x10c common/libcommon.a(cmd_nand.o)
 .rodata        0x03fbb730        0xc common/libcommon.a(wmt_cmd_display.o)
 .rodata        0x03fbb73c      0x840 common/libcommon.a(minivgui.o)
 .rodata        0x03fbbf7c       0x34 common/libcommon.a(usb_storage.o)
 .rodata        0x03fbbfb0       0xb8 common/libcommon.a(govrh.o)
 .rodata        0x03fbc068       0xa4 common/libcommon.a(vout.o)
 .rodata        0x03fbc10c        0xd common/libcommon.a(lcd.o)
 *fill*         0x03fbc119        0x3 00
 .rodata        0x03fbc11c       0x20 common/libcommon.a(lvds.o)
 .rodata        0x03fbc13c      0xbbc common/libcommon.a(vpp.o)
                0x03fbc13c                vpp_video_mode_table
                0x03fbca9c                hdmi_vic_info
                0x03fbcb70                vpp_csc_parm
 .rodata        0x03fbccf8       0x9c common/libcommon.a(hdmi.o)
 .rodata        0x03fbcd94       0x18 common/libcommon.a(parse-edid.o)
                0x03fbcd94                edid_v1_descriptor_flag
                0x03fbcda4                edid_v1_header
 .rodata        0x03fbcdac       0x5b common/libcommon.a(vout-wmt.o)
 *fill*         0x03fbce07        0x1 00
 .rodata        0x03fbce08       0x14 common/libcommon.a(lcd-oem.o)
 .rodata        0x03fbce1c       0x9c common/libcommon.a(cs8556.o)
 .rodata        0x03fbceb8       0x35 common/libcommon.a(vpp-osif.o)
 *fill*         0x03fbceed        0x3 00
 .rodata        0x03fbcef0      0x400 lib_generic/libgeneric.a(crc32.o)
 .rodata        0x03fbd2f0       0x90 lib_generic/libgeneric.a(zlib.o)
 .rodata        0x03fbd380        0xc board/wmt/libwmt.a(flash.o)
 .rodata        0x03fbd38c      0x21c board/wmt/libwmt.a(nor_flash_16bit.o)
 .rodata        0x03fbd5a8       0x3f board/wmt/libwmt.a(ehci-hcd.o)
 *fill*         0x03fbd5e7        0x1 00
 .rodata        0x03fbd5e8       0x10 cpu/arm920t/wmt/libwmt.a(alloct.o)

.rodata.str1.1  0x03fbd5f8     0xb4f2
 .rodata.str1.1
                0x03fbd5f8      0x264 cpu/arm920t/libarm920t.a(interrupts.o)
                                0x27b (size before relaxing)
 .rodata.str1.1
                0x03fbd85c       0xff lib_arm/libarm.a(board.o)
                                0x101 (size before relaxing)
 .rodata.str1.1
                0x03fbd95b      0x1ba net/libnet.a(net.o)
                                0x1c2 (size before relaxing)
 .rodata.str1.1
                0x03fbdb15      0x174 net/libnet.a(tftp.o)
                                0x1b5 (size before relaxing)
 .rodata.str1.1
                0x03fbdc89       0xcc net/libnet.a(bootp.o)
                                 0xfc (size before relaxing)
 .rodata.str1.1
                0x03fbdd55       0x13 net/libnet.a(rarp.o)
                                 0x47 (size before relaxing)
 .rodata.str1.1
                0x03fbdd68       0xe4 net/libnet.a(nfs.o)
                                0x16c (size before relaxing)
 .rodata.str1.1
                0x03fbde4c      0x10b common/libcommon.a(main.o)
                                0x10e (size before relaxing)
 .rodata.str1.1
                0x03fbdf57       0xec common/libcommon.a(cmd_autoscript.o)
 .rodata.str1.1
                0x03fbe043       0xb2 common/libcommon.a(cmd_bdinfo.o)
 .rodata.str1.1
                0x03fbe0f5      0x106 common/libcommon.a(cmd_boot.o)
                                0x111 (size before relaxing)
 .rodata.str1.1
                0x03fbe1fb      0x7a6 common/libcommon.a(cmd_bootm.o)
                                0x806 (size before relaxing)
 .rodata.str1.1
                0x03fbe9a1       0x67 common/libcommon.a(cmd_console.o)
                                 0x6c (size before relaxing)
 .rodata.str1.1
                0x03fbea08      0x54c common/libcommon.a(cmd_fat.o)
                                0x55b (size before relaxing)
 .rodata.str1.1
                0x03fbef54      0x745 common/libcommon.a(cmd_flash.o)
                                0x75d (size before relaxing)
 .rodata.str1.1
                0x03fbf699      0x42d common/libcommon.a(cmd_i2c.o)
                                0x468 (size before relaxing)
 .rodata.str1.1
                0x03fbfac6      0x468 common/libcommon.a(cmd_ide.o)
                                0x503 (size before relaxing)
 .rodata.str1.1
                0x03fbff2e       0xba common/libcommon.a(cmd_itest.o)
                                 0xca (size before relaxing)
 .rodata.str1.1
                0x03fbffe8      0x2dc common/libcommon.a(cmd_load.o)
                                0x2f2 (size before relaxing)
 .rodata.str1.1
                0x03fc02c4      0x64f common/libcommon.a(cmd_mem.o)
                                0x6a3 (size before relaxing)
 .rodata.str1.1
                0x03fc0913      0x785 common/libcommon.a(cmd_mii.o)
                                0x7a6 (size before relaxing)
 .rodata.str1.1
                0x03fc1098       0x6b common/libcommon.a(cmd_misc.o)
                                 0x76 (size before relaxing)
 .rodata.str1.1
                0x03fc1103      0x619 common/libcommon.a(cmd_mmc.o)
                                0x6b0 (size before relaxing)
 .rodata.str1.1
                0x03fc171c       0x38 common/libcommon.a(cmd_dma.o)
                                 0xa0 (size before relaxing)
 .rodata.str1.1
                0x03fc1754     0x1b3c common/libcommon.a(cmd_nand.o)
                               0x1c0b (size before relaxing)
 .rodata.str1.1
                0x03fc3290      0x20f common/libcommon.a(cmd_net.o)
                                0x282 (size before relaxing)
 .rodata.str1.1
                0x03fc349f      0x2c6 common/libcommon.a(cmd_nvedit.o)
                                0x350 (size before relaxing)
 .rodata.str1.1
                0x03fc3765      0x72e common/libcommon.a(cmd_usb.o)
                                0x922 (size before relaxing)
 .rodata.str1.1
                0x03fc3e93      0x2ed common/libcommon.a(command.o)
                                0x341 (size before relaxing)
 .rodata.str1.1
                0x03fc4180       0x70 common/libcommon.a(console.o)
                                 0x74 (size before relaxing)
 .rodata.str1.1
                0x03fc41f0       0x2f common/libcommon.a(devices.o)
                                 0x43 (size before relaxing)
 .rodata.str1.1
                0x03fc421f       0x33 common/libcommon.a(env_common.o)
                                 0x37 (size before relaxing)
 .rodata.str1.1
                0x03fc4252       0x7f common/libcommon.a(env_flash.o)
                                 0x85 (size before relaxing)
 .rodata.str1.1
                0x03fc42d1      0x151 common/libcommon.a(wmt_cmd_display.o)
                                0x185 (size before relaxing)
 .rodata.str1.1
                0x03fc4422       0x4a common/libcommon.a(minivgui.o)
 .rodata.str1.1
                0x03fc446c       0xff common/libcommon.a(uboot-vpp.o)
                                0x14e (size before relaxing)
 .rodata.str1.1
                0x03fc456b       0xe9 common/libcommon.a(cmd_mbit.o)
                                0x110 (size before relaxing)
 .rodata.str1.1
                0x03fc4654      0x299 common/libcommon.a(cmd_textout.o)
                                0x2aa (size before relaxing)
 .rodata.str1.1
                0x03fc48ed      0x28e common/libcommon.a(env_parse.o)
                                0x2b2 (size before relaxing)
 .rodata.str1.1
                0x03fc4b7b       0xf7 common/libcommon.a(flash.o)
                                0x10c (size before relaxing)
 .rodata.str1.1
                0x03fc4c72      0x14b common/libcommon.a(hush.o)
                                0x1ae (size before relaxing)
 .rodata.str1.1
                0x03fc4dbd      0x174 common/libcommon.a(miiphyutil.o)
                                0x176 (size before relaxing)
 .rodata.str1.1
                0x03fc4f31      0x29e common/libcommon.a(usb.o)
 .rodata.str1.1
                0x03fc51cf      0x1cc common/libcommon.a(usb_storage.o)
                                0x1de (size before relaxing)
 .rodata.str1.1
                0x03fc539b       0x1b common/libcommon.a(pwm.o)
 .rodata.str1.1
                0x03fc53b6      0x39b common/libcommon.a(govrh.o)
                                0x3c6 (size before relaxing)
 .rodata.str1.1
                0x03fc5751      0x1e0 common/libcommon.a(vout.o)
                                0x20d (size before relaxing)
 .rodata.str1.1
                0x03fc5931       0x36 common/libcommon.a(lcd.o)
 .rodata.str1.1
                0x03fc5967       0xd1 common/libcommon.a(lvds.o)
 .rodata.str1.1
                0x03fc5a38      0x391 common/libcommon.a(vpp.o)
                                0x3a6 (size before relaxing)
 .rodata.str1.1
                0x03fc5dc9      0x4e3 common/libcommon.a(hdmi.o)
                                0x4ea (size before relaxing)
 .rodata.str1.1
                0x03fc62ac      0x9ca common/libcommon.a(parse-edid.o)
                                0x9da (size before relaxing)
 .rodata.str1.1
                0x03fc6c76      0x29f common/libcommon.a(vout-wmt.o)
 .rodata.str1.1
                0x03fc6f15       0x68 common/libcommon.a(lcd-oem.o)
 .rodata.str1.1
                0x03fc6f7d       0x23 common/libcommon.a(lcd-AUO-A080SN01.o)
 .rodata.str1.1
                0x03fc6fa0       0x12 common/libcommon.a(lcd-INNOLUX-AT070TN83.o)
 .rodata.str1.1
                0x03fc6fb2       0x48 common/libcommon.a(lcd-CHILIN-LW700at9003.o)
 .rodata.str1.1
                0x03fc6ffa       0x3b common/libcommon.a(lcd-EKING-EK08009-70135.o)
 .rodata.str1.1
                0x03fc7035       0x47 common/libcommon.a(lcd-HANNSTAR-HSD101PFW2.o)
 .rodata.str1.1
                0x03fc707c       0x2e common/libcommon.a(vt1632.o)
                                 0x35 (size before relaxing)
 .rodata.str1.1
                0x03fc70aa      0x1e3 common/libcommon.a(cs8556.o)
                                0x1eb (size before relaxing)
 .rodata.str1.1
                0x03fc728d       0x32 common/libcommon.a(wmt-ost.o)
 .rodata.str1.1
                0x03fc72bf       0x24 common/libcommon.a(vpp-osif.o)
 .rodata.str1.1
                0x03fc72e3       0x40 common/libcommon.a(sw_i2c.o)
                                 0x41 (size before relaxing)
 .rodata.str1.1
                0x03fc7323       0x18 lib_generic/libgeneric.a(display_options.o)
 .rodata.str1.1
                0x03fc733b       0x51 lib_generic/libgeneric.a(vsprintf.o)
 .rodata.str1.1
                0x03fc738c      0x1f3 lib_generic/libgeneric.a(zlib.o)
                                0x1f4 (size before relaxing)
 .rodata.str1.1
                0x03fc757f       0x9c board/wmt/libwmt.a(flash.o)
                                 0x9e (size before relaxing)
 .rodata.str1.1
                0x03fc761b      0x273 board/wmt/libwmt.a(spi_flash.o)
                                0x294 (size before relaxing)
 .rodata.str1.1
                0x03fc788e      0x29b board/wmt/libwmt.a(nor_flash_8bit.o)
                                0x325 (size before relaxing)
 .rodata.str1.1
                0x03fc7b29      0x102 board/wmt/libwmt.a(nor_flash_16bit.o)
                                0x3ce (size before relaxing)
 .rodata.str1.1
                0x03fc7c2b      0x1e1 board/wmt/libwmt.a(wmt_clk.o)
 .rodata.str1.1
                0x03fc7e0c      0x11a board/wmt/libwmt.a(ehci-hcd.o)
 .rodata.str1.1
                0x03fc7f26      0x32a board/wmt/libwmt.a(usb_uhci.o)
                                0x32c (size before relaxing)
 .rodata.str1.1
                0x03fc8250       0x1d board/wmt/libwmt.a(wmt_i2c.o)
 .rodata.str1.1
                0x03fc826d       0xb9 cpu/arm920t/wmt/libwmt.a(macif.o)
 .rodata.str1.1
                0x03fc8326       0x73 cpu/arm920t/wmt/libwmt.a(adapter.o)
 .rodata.str1.1
                0x03fc8399       0x36 cpu/arm920t/wmt/libwmt.a(alloct.o)
 .rodata.str1.1
                0x03fc83cf      0x11a cpu/arm920t/wmt/libwmt.a(dma.o)
 .rodata.str1.1
                0x03fc84e9      0x16a cpu/arm920t/wmt/libwmt.a(mmc.o)
 .rodata.str1.1
                0x00000000        0x2 cpu/arm920t/wmt/libwmt.a(mac.o)
 .rodata.str1.1
                0x03fc8653      0x10b lib_arm/libarm.a(armlinux.o)
                                0x17a (size before relaxing)
 .rodata.str1.1
                0x03fc875e      0x150 fs/fat/libfat.a(fat.o)
                                0x1c3 (size before relaxing)
 .rodata.str1.1
                0x03fc88ae      0x152 disk/libdisk.a(part.o)
                                0x17a (size before relaxing)
 .rodata.str1.1
                0x03fc8a00       0xea disk/libdisk.a(part_dos.o)
                                 0xf6 (size before relaxing)
                0x03fc8aec                . = ALIGN (0x4)

.data           0x03fc8aec     0x5cc8
 *(.data)
 .data          0x03fc8aec        0x0 cpu/arm920t/start.o
 .data          0x03fc8aec        0x0 board/wmt/libwmt.a(lowlevel_init.o)
 .data          0x03fc8aec        0x0 cpu/arm920t/libarm920t.a(interrupts.o)
 .data          0x03fc8aec        0x0 cpu/arm920t/wmt/libwmt.a(interrupts.o)
 .data          0x03fc8aec       0x2c lib_arm/libarm.a(board.o)
                0x03fc8aec                init_sequence
 .data          0x03fc8b18        0xa net/libnet.a(net.o)
                0x03fc8b18                NetOurVLAN
                0x03fc8b1a                NetBcastAddr
                0x03fc8b20                NetOurNativeVLAN
 .data          0x03fc8b22        0x0 net/libnet.a(tftp.o)
 .data          0x03fc8b22        0x0 net/libnet.a(bootp.o)
 .data          0x03fc8b22        0x0 net/libnet.a(rarp.o)
 .data          0x03fc8b22        0x0 net/libnet.a(eth.o)
 *fill*         0x03fc8b22        0x2 00
 .data          0x03fc8b24        0x4 net/libnet.a(nfs.o)
 .data          0x03fc8b28        0xd common/libcommon.a(main.o)
 .data          0x03fc8b35        0x0 common/libcommon.a(cmd_autoscript.o)
 .data          0x03fc8b35        0x0 common/libcommon.a(cmd_bdinfo.o)
 .data          0x03fc8b35        0x0 common/libcommon.a(cmd_boot.o)
 *fill*         0x03fc8b35        0x3 00
 .data          0x03fc8b38        0x4 common/libcommon.a(cmd_bootm.o)
                0x03fc8b38                load_addr
 .data          0x03fc8b3c        0x0 common/libcommon.a(cmd_console.o)
 .data          0x03fc8b3c        0x0 common/libcommon.a(cmd_fat.o)
 .data          0x03fc8b3c        0x0 common/libcommon.a(cmd_flash.o)
 .data          0x03fc8b3c        0x4 common/libcommon.a(cmd_i2c.o)
 .data          0x03fc8b40        0x4 common/libcommon.a(cmd_ide.o)
 .data          0x03fc8b44       0x68 common/libcommon.a(cmd_itest.o)
                0x03fc8b44                op_table
 .data          0x03fc8bac        0x4 common/libcommon.a(cmd_load.o)
 .data          0x03fc8bb0        0x4 common/libcommon.a(cmd_mem.o)
                0x03fc8bb0                dp_last_length
 .data          0x03fc8bb4      0x2e8 common/libcommon.a(cmd_mii.o)
                0x03fc8bb4                reg_0_5_desc_tbl
                0x03fc8be4                desc_and_len_tbl
                0x03fc8c14                reg_0_desc_tbl
                0x03fc8c8c                reg_1_desc_tbl
                0x03fc8d4c                reg_2_desc_tbl
                0x03fc8d58                reg_3_desc_tbl
                0x03fc8d7c                reg_4_desc_tbl
                0x03fc8e0c                reg_5_desc_tbl
 .data          0x03fc8e9c        0x0 common/libcommon.a(cmd_misc.o)
 .data          0x03fc8e9c        0x4 common/libcommon.a(cmd_mmc.o)
 .data          0x03fc8ea0        0x4 common/libcommon.a(cmd_dma.o)
                0x03fc8ea0                pDma_Reg
 .data          0x03fc8ea4     0x3c44 common/libcommon.a(cmd_nand.o)
                0x03fc8ea4                rdmz
                0x03fcafa8                eslc_map_table
                0x03fcbdc8                chip_table
 .data          0x03fccae8        0x0 common/libcommon.a(cmd_net.o)
 .data          0x03fccae8        0x0 common/libcommon.a(cmd_nvedit.o)
 .data          0x03fccae8        0x4 common/libcommon.a(cmd_usb.o)
 .data          0x03fccaec        0x0 common/libcommon.a(command.o)
 .data          0x03fccaec        0x0 common/libcommon.a(console.o)
 .data          0x03fccaec        0xc common/libcommon.a(devices.o)
                0x03fccaec                stdio_names
 .data          0x03fccaf8      0x414 common/libcommon.a(dlmalloc.o)
 .data          0x03fccf0c      0x138 common/libcommon.a(env_common.o)
                0x03fccf0c                default_environment
                0x03fcd040                env_get_char
 .data          0x03fcd044       0x18 common/libcommon.a(env_flash.o)
                0x03fcd054                env_ptr
                0x03fcd058                env_name_spec
 .data          0x03fcd05c        0x0 common/libcommon.a(exports.o)
 .data          0x03fcd05c        0x0 common/libcommon.a(wmt_cmd_display.o)
 .data          0x03fcd05c        0x0 common/libcommon.a(minivgui.o)
 .data          0x03fcd05c       0xc0 common/libcommon.a(uboot-vpp.o)
                0x03fcd05c                vfb_var
                0x03fcd0fc                video_str
 .data          0x03fcd11c        0x0 common/libcommon.a(cmd_mbit.o)
 .data          0x03fcd11c        0x8 common/libcommon.a(cmd_textout.o)
                0x03fcd11c                text_x
                0x03fcd120                text_y
 .data          0x03fcd124        0x0 common/libcommon.a(env_parse.o)
 .data          0x03fcd124        0x0 common/libcommon.a(flash.o)
 .data          0x03fcd124       0x84 common/libcommon.a(hush.o)
 .data          0x03fcd1a8        0x0 common/libcommon.a(lists.o)
 .data          0x03fcd1a8        0x0 common/libcommon.a(miiphyutil.o)
 .data          0x03fcd1a8        0x0 common/libcommon.a(s_record.o)
 .data          0x03fcd1a8        0x0 common/libcommon.a(usb.o)
 .data          0x03fcd1a8       0x24 common/libcommon.a(usb_storage.o)
                0x03fcd1a8                us_direction
                0x03fcd1c8                CBWTag
 .data          0x03fcd1cc        0x0 common/libcommon.a(pwm.o)
 .data          0x03fcd1cc        0x0 common/libcommon.a(govrh.o)
 .data          0x03fcd1cc       0x3c common/libcommon.a(vout.o)
                0x03fcd1cc                vout_inf_str
                0x03fcd1e4                vout_adpt_str
 .data          0x03fcd208       0x4c common/libcommon.a(lcd.o)
                0x03fcd208                lcd_panel_id
                0x03fcd20c                lcd_panel_bpp
                0x03fcd210                lcd_vout_dev_ops
                0x03fcd250                lcd_panel_on
 .data          0x03fcd254        0x0 common/libcommon.a(lvds.o)
 .data          0x03fcd254       0xbc common/libcommon.a(vpp.o)
                0x03fcd254                vpp_colfmt_str
                0x03fcd288                vpp_vo_boot_arg
                0x03fcd2a0                vpp_vo_boot_arg2
                0x03fcd2b8                vpp_vpath_str
                0x03fcd2d8                vpp_mod_str
 .data          0x03fcd310        0x0 common/libcommon.a(hdmi.o)
 .data          0x03fcd310       0xcc common/libcommon.a(parse-edid.o)
                0x03fcd310                edid_establish_timing
 .data          0x03fcd3dc      0x7d4 common/libcommon.a(vout-wmt.o)
                0x03fcd3dc                vo_swi2c_dvi
                0x03fcd3e4                vo_dvi_inf
                0x03fcd400                vo_hdmi_inf
                0x03fcd41c                vo_lvds_inf
                0x03fcd438                vout_entry_0
                0x03fcd7d4                vout_entry_1
                0x03fcdb70                vout_sys_parm_str
                0x03fcdb78                vo_gpio_scl
                0x03fcdb94                vo_gpio_sda
 .data          0x03fcdbb0      0x140 common/libcommon.a(lcd-oem.o)
                0x03fcdbb0                lcd_oem_parm
                0x03fcdbf0                lcd_oem_parm_1024x600
                0x03fcdc30                lcd_oem_parm_1024x768
                0x03fcdc70                lcd_oem_parm_1366x768
                0x03fcdcb0                lcd_oem_parm_800x480
 .data          0x03fcdcf0       0x40 common/libcommon.a(lcd-AUO-A080SN01.o)
                0x03fcdcf0                lcd_a080sn01_parm
 .data          0x03fcdd30       0x40 common/libcommon.a(lcd-INNOLUX-AT070TN83.o)
                0x03fcdd30                lcd_at070tn83_parm
 .data          0x03fcdd70       0x40 common/libcommon.a(lcd-CHILIN-LW700at9003.o)
                0x03fcdd70                lcd_lw700at9003_parm
 .data          0x03fcddb0       0x40 common/libcommon.a(lcd-EKING-EK08009-70135.o)
                0x03fcddb0                lcd_ek08009_parm
 .data          0x03fcddf0       0x40 common/libcommon.a(lcd-HANNSTAR-HSD101PFW2.o)
                0x03fcddf0                lcd_HSD101PFW2_parm
 .data          0x03fcde30       0x40 common/libcommon.a(vt1632.o)
                0x03fcde30                vt1632_vout_dev_ops
 .data          0x03fcde70        0x0 common/libcommon.a(sil902x.o)
 .data          0x03fcde70      0x240 common/libcommon.a(cs8556.o)
                0x03fce070                cs8556_vout_dev_ops
 .data          0x03fce0b0        0x0 common/libcommon.a(wmt-ost.o)
 .data          0x03fce0b0        0x0 common/libcommon.a(vpp-osif.o)
 .data          0x03fce0b0        0x0 common/libcommon.a(sw_i2c.o)
 .data          0x03fce0b0        0x0 lib_generic/libgeneric.a(crc32.o)
 .data          0x03fce0b0      0x100 lib_generic/libgeneric.a(ctype.o)
                0x03fce0b0                _ctype
 .data          0x03fce1b0        0x0 lib_generic/libgeneric.a(display_options.o)
 .data          0x03fce1b0        0x0 lib_generic/libgeneric.a(string.o)
 .data          0x03fce1b0        0x0 lib_generic/libgeneric.a(vsprintf.o)
 .data          0x03fce1b0      0x210 lib_generic/libgeneric.a(zlib.o)
                0x03fce39c                zlib_version
                0x03fce3a0                z_errmsg
 .data          0x03fce3c0        0x0 board/wmt/libwmt.a(wmt.o)
 .data          0x03fce3c0        0xc board/wmt/libwmt.a(flash.o)
                0x03fce3c0                flash_type
                0x03fce3c4                nor_flash_bit
                0x03fce3c8                nand_flash_bit
 .data          0x03fce3cc        0x0 board/wmt/libwmt.a(main.o)
 .data          0x03fce3cc      0x120 board/wmt/libwmt.a(spi_flash.o)
                0x03fce3cc                sf_ids
 .data          0x03fce4ec        0x0 board/wmt/libwmt.a(nand_flash.o)
 .data          0x03fce4ec        0x0 board/wmt/libwmt.a(nor_flash_8bit.o)
 .data          0x03fce4ec        0x0 board/wmt/libwmt.a(nor_flash_16bit.o)
 .data          0x03fce4ec        0x0 board/wmt/libwmt.a(wmt_clk.o)
 .data          0x03fce4ec       0x38 board/wmt/libwmt.a(ehci-hcd.o)
                0x03fce522                usb_sel
                0x03fce523                ConnectPort
 .data          0x03fce524       0x58 board/wmt/libwmt.a(usb_uhci.o)
                0x03fce524                usb_base_addr
 .data          0x03fce57c        0x0 board/wmt/libwmt.a(wmt_i2c.o)
 .data          0x03fce57c        0x0 board/wmt/libwmt.a(wmt_i2c_1.o)
 .data          0x03fce57c        0x0 board/wmt/libwmt.a(wmt_i2c_2.o)
 .data          0x03fce57c        0x0 board/wmt/libwmt.a(wmt_i2c_3.o)
 .data          0x03fce57c        0x0 cpu/arm920t/libarm920t.a(cpu.o)
 .data          0x03fce57c        0x8 cpu/arm920t/wmt/libwmt.a(serial.o)
                0x03fce57c                pUart_Reg
                0x03fce580                pGpioReg
 .data          0x03fce584        0x0 cpu/arm920t/wmt/libwmt.a(ether.o)
 .data          0x03fce584        0x0 cpu/arm920t/wmt/libwmt.a(macif.o)
 .data          0x03fce584        0x0 cpu/arm920t/wmt/libwmt.a(adapter.o)
 .data          0x03fce584        0x0 cpu/arm920t/wmt/libwmt.a(alloct.o)
 .data          0x03fce584        0x0 cpu/arm920t/wmt/libwmt.a(mii.o)
 .data          0x03fce584        0x0 cpu/arm920t/wmt/libwmt.a(mem.o)
 .data          0x03fce584        0x0 cpu/arm920t/wmt/libwmt.a(vpci.o)
 .data          0x03fce584      0x220 cpu/arm920t/wmt/libwmt.a(dma.o)
                0x03fce584                dma_device_cfg_table
 .data          0x03fce7a4        0xc cpu/arm920t/wmt/libwmt.a(mmc.o)
                0x03fce7a4                pSd_Reg
                0x03fce7a8                pSd_PDma_Reg
                0x03fce7ac                GpioReg
 .data          0x03fce7b0        0x0 cpu/arm920t/wmt/libwmt.a(mac.o)
 .data          0x03fce7b0        0x0 lib_arm/libarm.a(armlinux.o)
 .data          0x03fce7b0        0x0 lib_arm/libarm.a(cache.o)
 .data          0x03fce7b0        0x4 fs/fat/libfat.a(fat.o)
 .data          0x03fce7b4        0x0 disk/libdisk.a(part.o)
 .data          0x03fce7b4        0x0 disk/libdisk.a(part_dos.o)
 .data          0x03fce7b4        0x0 cpu/arm920t/wmt/libwmt.a(zde.o)
 .data          0x03fce7b4        0x0 /home/pd2/toolchain/arm_201103_gcc4.5.2/bin/../lib/gcc/arm-none-linux-gnueabi/4.5.2/libgcc.a(_udivsi3.o)
 .data          0x03fce7b4        0x0 /home/pd2/toolchain/arm_201103_gcc4.5.2/bin/../lib/gcc/arm-none-linux-gnueabi/4.5.2/libgcc.a(_divsi3.o)
 .data          0x03fce7b4        0x0 /home/pd2/toolchain/arm_201103_gcc4.5.2/bin/../lib/gcc/arm-none-linux-gnueabi/4.5.2/libgcc.a(_lshrdi3.o)
 .data          0x03fce7b4        0x0 /home/pd2/toolchain/arm_201103_gcc4.5.2/bin/../lib/gcc/arm-none-linux-gnueabi/4.5.2/libgcc.a(_ashldi3.o)
 .data          0x03fce7b4        0x0 /home/pd2/toolchain/arm_201103_gcc4.5.2/bin/../lib/gcc/arm-none-linux-gnueabi/4.5.2/libgcc.a(_dvmd_lnx.o)
                0x03fce7b4                . = ALIGN (0x4)

.got
 *(.got)
                0x03fce7b4                __u_boot_cmd_start = .

.u_boot_cmd     0x03fce7b4      0x7c4
 *(.u_boot_cmd)
 .u_boot_cmd    0x03fce7b4       0x1c common/libcommon.a(cmd_autoscript.o)
                0x03fce7b4                __u_boot_cmd_autoscr
 .u_boot_cmd    0x03fce7d0       0x1c common/libcommon.a(cmd_bdinfo.o)
                0x03fce7d0                __u_boot_cmd_bdinfo
 .u_boot_cmd    0x03fce7ec       0x38 common/libcommon.a(cmd_boot.o)
                0x03fce7ec                __u_boot_cmd_go
                0x03fce808                __u_boot_cmd_reset
 .u_boot_cmd    0x03fce824       0x8c common/libcommon.a(cmd_bootm.o)
                0x03fce824                __u_boot_cmd_bootm
                0x03fce840                __u_boot_cmd_boot
                0x03fce85c                __u_boot_cmd_bootd
                0x03fce878                __u_boot_cmd_iminfo
                0x03fce894                __u_boot_cmd_imls
 .u_boot_cmd    0x03fce8b0       0x1c common/libcommon.a(cmd_console.o)
                0x03fce8b0                __u_boot_cmd_coninfo
 .u_boot_cmd    0x03fce8cc       0x70 common/libcommon.a(cmd_fat.o)
                0x03fce8cc                __u_boot_cmd_fatload
                0x03fce8e8                __u_boot_cmd_fatstore
                0x03fce904                __u_boot_cmd_fatls
                0x03fce920                __u_boot_cmd_fatinfo
 .u_boot_cmd    0x03fce93c       0x54 common/libcommon.a(cmd_flash.o)
                0x03fce93c                __u_boot_cmd_flinfo
                0x03fce958                __u_boot_cmd_erase
                0x03fce974                __u_boot_cmd_protect
 .u_boot_cmd    0x03fce990       0xe0 common/libcommon.a(cmd_i2c.o)
                0x03fce990                __u_boot_cmd_imd
                0x03fce9ac                __u_boot_cmd_imm
                0x03fce9c8                __u_boot_cmd_inm
                0x03fce9e4                __u_boot_cmd_imw
                0x03fcea00                __u_boot_cmd_icrc32
                0x03fcea1c                __u_boot_cmd_iprobe
                0x03fcea38                __u_boot_cmd_iloop
                0x03fcea54                __u_boot_cmd_ims
 .u_boot_cmd    0x03fcea70       0x38 common/libcommon.a(cmd_ide.o)
                0x03fcea70                __u_boot_cmd_ide
                0x03fcea8c                __u_boot_cmd_diskboot
 .u_boot_cmd    0x03fceaa8       0x1c common/libcommon.a(cmd_itest.o)
                0x03fceaa8                __u_boot_cmd_itest
 .u_boot_cmd    0x03fceac4       0x38 common/libcommon.a(cmd_load.o)
                0x03fceac4                __u_boot_cmd_loads
                0x03fceae0                __u_boot_cmd_loadb
 .u_boot_cmd    0x03fceafc      0x118 common/libcommon.a(cmd_mem.o)
                0x03fceafc                __u_boot_cmd_md
                0x03fceb18                __u_boot_cmd_mm
                0x03fceb34                __u_boot_cmd_nm
                0x03fceb50                __u_boot_cmd_mw
                0x03fceb6c                __u_boot_cmd_cp
                0x03fceb88                __u_boot_cmd_cmp
                0x03fceba4                __u_boot_cmd_crc32
                0x03fcebc0                __u_boot_cmd_base
                0x03fcebdc                __u_boot_cmd_loop
                0x03fcebf8                __u_boot_cmd_mtest
 .u_boot_cmd    0x03fcec14       0x1c common/libcommon.a(cmd_mii.o)
                0x03fcec14                __u_boot_cmd_mii
 .u_boot_cmd    0x03fcec30       0x1c common/libcommon.a(cmd_misc.o)
                0x03fcec30                __u_boot_cmd_sleep
 .u_boot_cmd    0x03fcec4c       0x8c common/libcommon.a(cmd_mmc.o)
                0x03fcec4c                __u_boot_cmd_mmcinit
                0x03fcec68                __u_boot_cmd_mmcread
                0x03fcec84                __u_boot_cmd_mmcwrite
                0x03fceca0                __u_boot_cmd_sdwaitins
                0x03fcecbc                __u_boot_cmd_mmcreadimg
 .u_boot_cmd    0x03fcecd8       0x1c common/libcommon.a(cmd_dma.o)
                0x03fcecd8                __u_boot_cmd_dmacp
 .u_boot_cmd    0x03fcecf4       0x38 common/libcommon.a(cmd_nand.o)
                0x03fcecf4                __u_boot_cmd_nandrw
                0x03fced10                __u_boot_cmd_parseimg
 .u_boot_cmd    0x03fced2c       0xa8 common/libcommon.a(cmd_net.o)
                0x03fced2c                __u_boot_cmd_bootp
                0x03fced48                __u_boot_cmd_tftpboot
                0x03fced64                __u_boot_cmd_rarpboot
                0x03fced80                __u_boot_cmd_dhcp
                0x03fced9c                __u_boot_cmd_nfs
                0x03fcedb8                __u_boot_cmd_ping
 .u_boot_cmd    0x03fcedd4       0x70 common/libcommon.a(cmd_nvedit.o)
                0x03fcedd4                __u_boot_cmd_printenv
                0x03fcedf0                __u_boot_cmd_setenv
                0x03fcee0c                __u_boot_cmd_saveenv
                0x03fcee28                __u_boot_cmd_run
 .u_boot_cmd    0x03fcee44       0x38 common/libcommon.a(cmd_usb.o)
                0x03fcee44                __u_boot_cmd_usb
                0x03fcee60                __u_boot_cmd_usbboot
 .u_boot_cmd    0x03fcee7c       0xa8 common/libcommon.a(command.o)
                0x03fcee7c                __u_boot_cmd_version
                0x03fcee98                __u_boot_cmd_echo
                0x03fceeb4                __u_boot_cmd_test
                0x03fceed0                __u_boot_cmd_exit
                0x03fceeec                __u_boot_cmd_help
                0x03fcef08                __u_boot_cmd_question_mark
 .u_boot_cmd    0x03fcef24       0x1c common/libcommon.a(wmt_cmd_display.o)
                0x03fcef24                __u_boot_cmd_display
 .u_boot_cmd    0x03fcef40       0x1c common/libcommon.a(cmd_mbit.o)
                0x03fcef40                __u_boot_cmd_mbit
 .u_boot_cmd    0x03fcef5c       0x1c common/libcommon.a(cmd_textout.o)
                0x03fcef5c                __u_boot_cmd_textout
                0x03fcef78                __u_boot_cmd_end = .
                0x03fcef78                . = ALIGN (0x4)
                0x03fcef78                __bss_start = .

.bss            0x03fcf000    0x21d24
 *(.bss)
 .bss           0x03fcf000        0x0 cpu/arm920t/start.o
 .bss           0x03fcf000        0x0 board/wmt/libwmt.a(lowlevel_init.o)
 .bss           0x03fcf000        0x0 cpu/arm920t/libarm920t.a(interrupts.o)
 .bss           0x03fcf000        0x8 cpu/arm920t/wmt/libwmt.a(interrupts.o)
 .bss           0x03fcf008       0x10 lib_arm/libarm.a(board.o)
                0x03fcf014                monitor_flash_len
 .bss           0x03fcf018     0x25d0 net/libnet.a(net.o)
                0x03fcf018                NetState
                0x03fcf01c                NetPingIP
                0x03fcf030                NetOurEther
                0x03fcf038                NetTxPacket
                0x03fcf03c                NetOurIP
                0x03fcf040                NetArpWaitPacketIP
                0x03fcf044                NetOurSubnetMask
                0x03fcf048                NetOurGatewayIP
                0x03fcf04c                NetArpWaitReplyIP
                0x03fcf050                NetArpWaitTimerStart
                0x03fcf054                NetArpWaitTry
                0x03fcf05e                NetEtherNullAddr
                0x03fcf064                NetArpWaitPacketMAC
                0x03fcf068                NetArpWaitTxPacket
                0x03fcf06c                NetIPID
                0x03fcf074                NetArpWaitTxPacketSize
                0x03fcf078                NetRxPkt
                0x03fcf07c                NetRxPktLen
                0x03fcf080                NetServerIP
                0x03fcf084                NetServerEther
                0x03fcf08a                PktBuf
                0x03fd0eac                NetRxPackets
                0x03fd0ebc                NetArpWaitPacketBuf
                0x03fd14dc                NetBootFileXferSize
                0x03fd14e0                NetOurDNSIP
                0x03fd14e4                NetOurNISDomain
                0x03fd1504                NetOurHostName
                0x03fd1524                NetOurRootPath
                0x03fd1564                NetBootFileSize
                0x03fd1566                BootFile
 .bss           0x03fd15e8       0x34 net/libnet.a(tftp.o)
 .bss           0x03fd161c       0x14 net/libnet.a(bootp.o)
                0x03fd161c                dhcp_leasetime
                0x03fd1620                NetDHCPServerIP
                0x03fd1624                BootpID
                0x03fd1628                dhcp_state
                0x03fd162c                BootpTry
 .bss           0x03fd1630        0x4 net/libnet.a(rarp.o)
                0x03fd1630                RarpTry
 .bss           0x03fd1634        0x0 net/libnet.a(eth.o)
 .bss           0x03fd1634      0x8b0 net/libnet.a(nfs.o)
 .bss           0x03fd1ee4      0x400 common/libcommon.a(main.o)
                0x03fd1ee4                console_buffer
 .bss           0x03fd22e4        0x0 common/libcommon.a(cmd_autoscript.o)
 .bss           0x03fd22e4        0x0 common/libcommon.a(cmd_bdinfo.o)
 .bss           0x03fd22e4        0x0 common/libcommon.a(cmd_boot.o)
 .bss           0x03fd22e4       0x40 common/libcommon.a(cmd_bootm.o)
                0x03fd22e4                header
 .bss           0x03fd2324        0x0 common/libcommon.a(cmd_console.o)
 .bss           0x03fd2324        0x0 common/libcommon.a(cmd_fat.o)
 .bss           0x03fd2324        0x0 common/libcommon.a(cmd_flash.o)
 .bss           0x03fd2324        0xc common/libcommon.a(cmd_i2c.o)
 .bss           0x03fd2330       0x70 common/libcommon.a(cmd_ide.o)
                0x03fd2330                ide_bus_offset
                0x03fd2334                ide_dev_desc
 .bss           0x03fd23a0        0x0 common/libcommon.a(cmd_itest.o)
 .bss           0x03fd23a0       0x88 common/libcommon.a(cmd_load.o)
                0x03fd23a4                os_data_count
                0x03fd23b0                his_pad_count
                0x03fd23b4                his_pad_char
                0x03fd23cd                his_eol
                0x03fd23d4                os_data_init
                0x03fd23e8                os_data_char
                0x03fd23ec                his_quote
                0x03fd23f0                send_ptr
                0x03fd23f4                send_parms
                0x03fd2408                os_data_header
 .bss           0x03fd2428       0x14 common/libcommon.a(cmd_mem.o)
                0x03fd242c                mm_last_addr
                0x03fd2430                mm_last_size
                0x03fd2434                dp_last_addr
                0x03fd2438                dp_last_size
 .bss           0x03fd243c       0x18 common/libcommon.a(cmd_mii.o)
                0x03fd243c                last_op
                0x03fd2440                last_addr_lo
                0x03fd2444                last_addr_hi
                0x03fd2448                last_reg_lo
                0x03fd244c                last_reg_hi
                0x03fd2450                last_data
 .bss           0x03fd2454        0x0 common/libcommon.a(cmd_misc.o)
 .bss           0x03fd2454      0x208 common/libcommon.a(cmd_mmc.o)
 .bss           0x03fd265c        0x4 common/libcommon.a(cmd_dma.o)
                0x03fd265c                flag0
 .bss           0x03fd2660      0x3c8 common/libcommon.a(cmd_nand.o)
                0x03fd2668                nand_dev_desc
                0x03fd2898                pNFCRegs
                0x03fd289c                g_WMTNFCBASE
                0x03fd28a0                pNand_PDma_Reg
                0x03fd28a4                ReadDesc
                0x03fd28ac                cur_chip
                0x03fd28b4                bad_block_pos
                0x03fd29a4                oob_config
                0x03fd29c4                NAND_PDMA_REG
                0x03fd29fc                PNAND_PDMA_REG
                0x03fd2a00                NAND_PDMA_DESC_S
                0x03fd2a08                PNAND_PDMA_DESC_S
                0x03fd2a0c                NAND_PDMA_DESC_L
                0x03fd2a1c                PNAND_PDMA_DESC_L
                0x03fd2a20                WriteDesc
 .bss           0x03fd2a28        0x0 common/libcommon.a(cmd_net.o)
 .bss           0x03fd2a28        0x0 common/libcommon.a(cmd_nvedit.o)
 .bss           0x03fd2a28        0x0 common/libcommon.a(cmd_usb.o)
 .bss           0x03fd2a28      0x600 common/libcommon.a(command.o)
 .bss           0x03fd3028        0x8 common/libcommon.a(console.o)
 .bss           0x03fd3030       0x10 common/libcommon.a(devices.o)
                0x03fd3030                devlist
                0x03fd3034                stdio_devices
 .bss           0x03fd3040       0x38 common/libcommon.a(dlmalloc.o)
 .bss           0x03fd3078        0x0 common/libcommon.a(env_common.o)
 .bss           0x03fd3078        0x0 common/libcommon.a(env_flash.o)
 .bss           0x03fd3078        0x0 common/libcommon.a(exports.o)
 .bss           0x03fd3078        0x0 common/libcommon.a(wmt_cmd_display.o)
 .bss           0x03fd3078       0x28 common/libcommon.a(minivgui.o)
                0x03fd3098                rgb2color
                0x03fd309c                putcolor2fb
 .bss           0x03fd30a0       0xa0 common/libcommon.a(uboot-vpp.o)
                0x03fd30a0                g_direct_path
                0x03fd30a4                g_fb_phy
                0x03fd30a8                g_img_phy
                0x03fd30ac                g_display_param
                0x03fd30c4                g_display_vaild
                0x03fd30c8                g_pwm_setting
                0x03fd30dc                g_display_param2
                0x03fd30f4                g_display_tmr
                0x03fd311c                g_lcd_pw_pin
                0x03fd3134                g_logo_x
                0x03fd3138                g_logo_y
                0x03fd313c                vpp_dac_sense_enable
 .bss           0x03fd3140        0x0 common/libcommon.a(cmd_mbit.o)
 .bss           0x03fd3140        0x0 common/libcommon.a(cmd_textout.o)
 .bss           0x03fd3140        0x0 common/libcommon.a(env_parse.o)
 .bss           0x03fd3140        0x0 common/libcommon.a(flash.o)
 .bss           0x03fd3140      0x558 common/libcommon.a(hush.o)
                0x03fd3570                last_return_code
                0x03fd3694                nesting_level
 .bss           0x03fd3698        0x0 common/libcommon.a(lists.o)
 .bss           0x03fd3698        0xc common/libcommon.a(miiphyutil.o)
 .bss           0x03fd36a4        0x0 common/libcommon.a(s_record.o)
 .bss           0x03fd36a4     0xaa9c common/libcommon.a(usb.o)
                0x03fde038                usb_started
 .bss           0x03fde140      0x5a0 common/libcommon.a(usb_storage.o)
 .bss           0x03fde6e0        0x0 common/libcommon.a(pwm.o)
 .bss           0x03fde6e0        0x8 common/libcommon.a(govrh.o)
                0x03fde6e0                p_govrh2
                0x03fde6e4                p_govrh
 .bss           0x03fde6e8       0xfc common/libcommon.a(vout.o)
                0x03fde6e8                vout_array
                0x03fde6f0                vout_info
                0x03fde7d0                vout_inf_array
                0x03fde7dc                vout_dev_list
                0x03fde7e0                vout_board_info
 .bss           0x03fde7e4       0x2c common/libcommon.a(lcd.o)
                0x03fde7e4                p_lcd
                0x03fde7e8                lcd_blt_id
                0x03fde7ec                lcd_device_array
                0x03fde804                lcd_blt_level
                0x03fde808                lcd_blt_freq
                0x03fde80c                lcd_pwm_enable
 .bss           0x03fde810        0x0 common/libcommon.a(lvds.o)
 .bss           0x03fde810      0x1bc common/libcommon.a(vpp.o)
                0x03fde810                g_vpp
                0x03fde988                vpp_mod_base_list
                0x03fde9bc                vpp_vout_option
                0x03fde9c0                hdmi_cp
                0x03fde9c4                hdmi_ri_tm_cnt
                0x03fde9c8                vpp_govm_path1
 .bss           0x03fde9cc        0x0 common/libcommon.a(hdmi.o)
 .bss           0x03fde9cc        0x4 common/libcommon.a(parse-edid.o)
                0x03fde9cc                edid_msg_enable
 .bss           0x03fde9d0       0x44 common/libcommon.a(vout-wmt.o)
                0x03fde9d0                vo_lvds_init_flag
                0x03fde9d4                vo_plug_vout
                0x03fde9d8                vo_plug_func
                0x03fde9dc                hdmi_cur_plugin
                0x03fde9e0                vo_oem_tmr
                0x03fdea08                dvo_vout_mode
                0x03fdea0c                int_vout_mode
                0x03fdea10                vo_poll_vout
 .bss           0x03fdea14        0x0 common/libcommon.a(lcd-oem.o)
 .bss           0x03fdea14        0x0 common/libcommon.a(lcd-AUO-A080SN01.o)
 .bss           0x03fdea14        0x0 common/libcommon.a(lcd-INNOLUX-AT070TN83.o)
 .bss           0x03fdea14        0x0 common/libcommon.a(lcd-CHILIN-LW700at9003.o)
 .bss           0x03fdea14        0x0 common/libcommon.a(lcd-EKING-EK08009-70135.o)
 .bss           0x03fdea14        0x0 common/libcommon.a(lcd-HANNSTAR-HSD101PFW2.o)
 .bss           0x03fdea14        0x4 common/libcommon.a(vt1632.o)
 .bss           0x03fdea18        0x0 common/libcommon.a(sil902x.o)
 .bss           0x03fdea18        0x4 common/libcommon.a(cs8556.o)
 .bss           0x03fdea1c        0x4 common/libcommon.a(wmt-ost.o)
 .bss           0x03fdea20        0x8 common/libcommon.a(vpp-osif.o)
                0x03fdea20                vpp_dvi_i2c_id
                0x03fdea24                vpp_i2c_lock
 .bss           0x03fdea28        0x8 common/libcommon.a(sw_i2c.o)
                0x03fdea28                swi2c_sda
                0x03fdea2c                swi2c_scl
 .bss           0x03fdea30        0x0 lib_generic/libgeneric.a(crc32.o)
 .bss           0x03fdea30        0x0 lib_generic/libgeneric.a(ctype.o)
 .bss           0x03fdea30        0x0 lib_generic/libgeneric.a(display_options.o)
 .bss           0x03fdea30        0x4 lib_generic/libgeneric.a(string.o)
                0x03fdea30                ___strtok
 .bss           0x03fdea34        0x0 lib_generic/libgeneric.a(vsprintf.o)
 .bss           0x03fdea34     0x10a8 lib_generic/libgeneric.a(zlib.o)
 .bss           0x03fdfadc        0x0 board/wmt/libwmt.a(wmt.o)
 .bss           0x03fdfadc     0x8cac board/wmt/libwmt.a(flash.o)
                0x03fdfadc                flash_info
                0x03fe2310                flash_info_nor
                0x03fe4b40                flash_info_nand
                0x03fe7370                flash_info_spi
 .bss           0x03fe8788        0x4 board/wmt/libwmt.a(main.o)
                0x03fe8788                chip_id
 .bss           0x03fe878c        0xc board/wmt/libwmt.a(spi_flash.o)
                0x03fe878c                sfreg
 .bss           0x03fe8798        0x0 board/wmt/libwmt.a(nand_flash.o)
 .bss           0x03fe8798        0x0 board/wmt/libwmt.a(nor_flash_8bit.o)
 .bss           0x03fe8798        0x0 board/wmt/libwmt.a(nor_flash_16bit.o)
 .bss           0x03fe8798      0x200 board/wmt/libwmt.a(wmt_clk.o)
 *fill*         0x03fe8998        0x8 00
 .bss           0x03fe89a0      0x1e0 board/wmt/libwmt.a(ehci-hcd.o)
                0x03fe8ae0                hcor
                0x03fe8ae4                rootdev
                0x03fe8aec                hccr
                0x03fe8af0                port_connect_status
                0x03fe8af4                MaxDevice
                0x03fe8af8                length_flag
                0x03fe8b60                pipe_flag
                0x03fe8b64                g_usb_param
                0x03fe8b68                usb_flag
                0x03fe8b6c                inquiry_flag
 *fill*         0x03fe8b80      0x480 00
 .bss           0x03fe9000     0x7000 board/wmt/libwmt.a(usb_uhci.o)
                0x03fe9080                tmp_td
                0x03fed080                qh_cntrl
                0x03fed100                qh_bulk
                0x03fed180                tmp_int_td
                0x03fed580                td_int
                0x03fee000                framelist
                0x03fef000                td_last
                0x03fef080                qh_end
 .bss           0x03ff0000       0x1c board/wmt/libwmt.a(wmt_i2c.o)
                0x03ff0018                i2c_xfer_mode
 .bss           0x03ff001c       0x18 board/wmt/libwmt.a(wmt_i2c_1.o)
 .bss           0x03ff0034       0x18 board/wmt/libwmt.a(wmt_i2c_2.o)
 .bss           0x03ff004c       0x18 board/wmt/libwmt.a(wmt_i2c_3.o)
 .bss           0x03ff0064        0x0 cpu/arm920t/libarm920t.a(cpu.o)
 .bss           0x03ff0064        0x0 cpu/arm920t/wmt/libwmt.a(serial.o)
 .bss           0x03ff0064        0x0 cpu/arm920t/wmt/libwmt.a(ether.o)
 .bss           0x03ff0064        0x4 cpu/arm920t/wmt/libwmt.a(macif.o)
                0x03ff0064                g_bInit
 .bss           0x03ff0068       0x20 cpu/arm920t/wmt/libwmt.a(adapter.o)
                0x03ff0068                sg_aAdapter
                0x03ff006c                g_sOptions
 .bss           0x03ff0088        0x0 cpu/arm920t/wmt/libwmt.a(alloct.o)
 .bss           0x03ff0088        0x4 cpu/arm920t/wmt/libwmt.a(mii.o)
 .bss           0x03ff008c        0x0 cpu/arm920t/wmt/libwmt.a(mem.o)
 .bss           0x03ff008c        0x0 cpu/arm920t/wmt/libwmt.a(vpci.o)
 .bss           0x03ff008c      0x168 cpu/arm920t/wmt/libwmt.a(dma.o)
 .bss           0x03ff01f4      0xb24 cpu/arm920t/wmt/libwmt.a(mmc.o)
                0x03ff01f4                SDDevInfo
                0x03ff01f8                SD0DevInfo
                0x03ff04b8                SD1DevInfo
                0x03ff076c                SD2DevInfo
                0x03ff0a20                SD3DevInfo
                0x03ff0cdc                SD_PDMA_REG
                0x03ff0d14                PSD_PDMA_REG
 .bss           0x03ff0d18        0x0 cpu/arm920t/wmt/libwmt.a(mac.o)
 .bss           0x03ff0d18        0x4 lib_arm/libarm.a(armlinux.o)
 .bss           0x03ff0d1c        0x0 lib_arm/libarm.a(cache.o)
 .bss           0x03ff0d1c        0x8 fs/fat/libfat.a(fat.o)
 .bss           0x03ff0d24        0x0 disk/libdisk.a(part.o)
 .bss           0x03ff0d24        0x0 disk/libdisk.a(part_dos.o)
 .bss           0x03ff0d24        0x0 cpu/arm920t/wmt/libwmt.a(zde.o)
 .bss           0x03ff0d24        0x0 /home/pd2/toolchain/arm_201103_gcc4.5.2/bin/../lib/gcc/arm-none-linux-gnueabi/4.5.2/libgcc.a(_udivsi3.o)
 .bss           0x03ff0d24        0x0 /home/pd2/toolchain/arm_201103_gcc4.5.2/bin/../lib/gcc/arm-none-linux-gnueabi/4.5.2/libgcc.a(_divsi3.o)
 .bss           0x03ff0d24        0x0 /home/pd2/toolchain/arm_201103_gcc4.5.2/bin/../lib/gcc/arm-none-linux-gnueabi/4.5.2/libgcc.a(_lshrdi3.o)
 .bss           0x03ff0d24        0x0 /home/pd2/toolchain/arm_201103_gcc4.5.2/bin/../lib/gcc/arm-none-linux-gnueabi/4.5.2/libgcc.a(_ashldi3.o)
 .bss           0x03ff0d24        0x0 /home/pd2/toolchain/arm_201103_gcc4.5.2/bin/../lib/gcc/arm-none-linux-gnueabi/4.5.2/libgcc.a(_dvmd_lnx.o)
                0x03ff0d24                _end = .

.stab
 *(.stab)

.stabstr
 *(.stabstr)

.stab.excl
 *(.stab.excl)

.stab.exclstr
 *(.stab.exclstr)

.stab.index
 *(.stab.index)

.stab.indexstr
 *(.stab.indexstr)

.ARM.attributes
                0x00000000       0x2b
 .ARM.attributes
                0x00000000       0x1f cpu/arm920t/start.o
 .ARM.attributes
                0x0000001f       0x1f board/wmt/libwmt.a(lowlevel_init.o)
 .ARM.attributes
                0x0000003e       0x2f cpu/arm920t/libarm920t.a(interrupts.o)
 .ARM.attributes
                0x0000006d       0x2f cpu/arm920t/wmt/libwmt.a(interrupts.o)
 .ARM.attributes
                0x0000009c       0x2f lib_arm/libarm.a(board.o)
 .ARM.attributes
                0x000000cb       0x2f net/libnet.a(net.o)
 .ARM.attributes
                0x000000fa       0x2f net/libnet.a(tftp.o)
 .ARM.attributes
                0x00000129       0x2f net/libnet.a(bootp.o)
 .ARM.attributes
                0x00000158       0x2f net/libnet.a(rarp.o)
 .ARM.attributes
                0x00000187       0x2f net/libnet.a(eth.o)
 .ARM.attributes
                0x000001b6       0x2f net/libnet.a(nfs.o)
 .ARM.attributes
                0x000001e5       0x2f common/libcommon.a(main.o)
 .ARM.attributes
                0x00000214       0x2f common/libcommon.a(cmd_autoscript.o)
 .ARM.attributes
                0x00000243       0x2f common/libcommon.a(cmd_bdinfo.o)
 .ARM.attributes
                0x00000272       0x2f common/libcommon.a(cmd_boot.o)
 .ARM.attributes
                0x000002a1       0x2f common/libcommon.a(cmd_bootm.o)
 .ARM.attributes
                0x000002d0       0x2f common/libcommon.a(cmd_console.o)
 .ARM.attributes
                0x000002ff       0x2f common/libcommon.a(cmd_fat.o)
 .ARM.attributes
                0x0000032e       0x2f common/libcommon.a(cmd_flash.o)
 .ARM.attributes
                0x0000035d       0x2f common/libcommon.a(cmd_i2c.o)
 .ARM.attributes
                0x0000038c       0x2f common/libcommon.a(cmd_ide.o)
 .ARM.attributes
                0x000003bb       0x2f common/libcommon.a(cmd_itest.o)
 .ARM.attributes
                0x000003ea       0x2f common/libcommon.a(cmd_load.o)
 .ARM.attributes
                0x00000419       0x2f common/libcommon.a(cmd_mem.o)
 .ARM.attributes
                0x00000448       0x2f common/libcommon.a(cmd_mii.o)
 .ARM.attributes
                0x00000477       0x2f common/libcommon.a(cmd_misc.o)
 .ARM.attributes
                0x000004a6       0x2f common/libcommon.a(cmd_mmc.o)
 .ARM.attributes
                0x000004d5       0x2f common/libcommon.a(cmd_dma.o)
 .ARM.attributes
                0x00000504       0x2f common/libcommon.a(cmd_nand.o)
 .ARM.attributes
                0x00000533       0x2f common/libcommon.a(cmd_net.o)
 .ARM.attributes
                0x00000562       0x2f common/libcommon.a(cmd_nvedit.o)
 .ARM.attributes
                0x00000591       0x2f common/libcommon.a(cmd_usb.o)
 .ARM.attributes
                0x000005c0       0x2f common/libcommon.a(command.o)
 .ARM.attributes
                0x000005ef       0x2f common/libcommon.a(console.o)
 .ARM.attributes
                0x0000061e       0x2f common/libcommon.a(devices.o)
 .ARM.attributes
                0x0000064d       0x2f common/libcommon.a(dlmalloc.o)
 .ARM.attributes
                0x0000067c       0x2f common/libcommon.a(env_common.o)
 .ARM.attributes
                0x000006ab       0x2f common/libcommon.a(env_flash.o)
 .ARM.attributes
                0x000006da       0x2f common/libcommon.a(exports.o)
 .ARM.attributes
                0x00000709       0x2f common/libcommon.a(wmt_cmd_display.o)
 .ARM.attributes
                0x00000738       0x2f common/libcommon.a(minivgui.o)
 .ARM.attributes
                0x00000767       0x2f common/libcommon.a(uboot-vpp.o)
 .ARM.attributes
                0x00000796       0x2f common/libcommon.a(cmd_mbit.o)
 .ARM.attributes
                0x000007c5       0x2f common/libcommon.a(cmd_textout.o)
 .ARM.attributes
                0x000007f4       0x2f common/libcommon.a(env_parse.o)
 .ARM.attributes
                0x00000823       0x2f common/libcommon.a(flash.o)
 .ARM.attributes
                0x00000852       0x2f common/libcommon.a(hush.o)
 .ARM.attributes
                0x00000881       0x2f common/libcommon.a(lists.o)
 .ARM.attributes
                0x000008b0       0x2f common/libcommon.a(miiphyutil.o)
 .ARM.attributes
                0x000008df       0x2f common/libcommon.a(s_record.o)
 .ARM.attributes
                0x0000090e       0x2f common/libcommon.a(usb.o)
 .ARM.attributes
                0x0000093d       0x2f common/libcommon.a(usb_storage.o)
 .ARM.attributes
                0x0000096c       0x2f common/libcommon.a(pwm.o)
 .ARM.attributes
                0x0000099b       0x2f common/libcommon.a(govrh.o)
 .ARM.attributes
                0x000009ca       0x2f common/libcommon.a(vout.o)
 .ARM.attributes
                0x000009f9       0x2f common/libcommon.a(lcd.o)
 .ARM.attributes
                0x00000a28       0x2f common/libcommon.a(lvds.o)
 .ARM.attributes
                0x00000a57       0x2f common/libcommon.a(vpp.o)
 .ARM.attributes
                0x00000a86       0x2f common/libcommon.a(hdmi.o)
 .ARM.attributes
                0x00000ab5       0x2f common/libcommon.a(parse-edid.o)
 .ARM.attributes
                0x00000ae4       0x2f common/libcommon.a(vout-wmt.o)
 .ARM.attributes
                0x00000b13       0x2f common/libcommon.a(lcd-oem.o)
 .ARM.attributes
                0x00000b42       0x2f common/libcommon.a(lcd-AUO-A080SN01.o)
 .ARM.attributes
                0x00000b71       0x2f common/libcommon.a(lcd-INNOLUX-AT070TN83.o)
 .ARM.attributes
                0x00000ba0       0x2f common/libcommon.a(lcd-CHILIN-LW700at9003.o)
 .ARM.attributes
                0x00000bcf       0x2f common/libcommon.a(lcd-EKING-EK08009-70135.o)
 .ARM.attributes
                0x00000bfe       0x2f common/libcommon.a(lcd-HANNSTAR-HSD101PFW2.o)
 .ARM.attributes
                0x00000c2d       0x2f common/libcommon.a(vt1632.o)
 .ARM.attributes
                0x00000c5c       0x2f common/libcommon.a(sil902x.o)
 .ARM.attributes
                0x00000c8b       0x2f common/libcommon.a(cs8556.o)
 .ARM.attributes
                0x00000cba       0x2f common/libcommon.a(wmt-ost.o)
 .ARM.attributes
                0x00000ce9       0x2f common/libcommon.a(vpp-osif.o)
 .ARM.attributes
                0x00000d18       0x2f common/libcommon.a(sw_i2c.o)
 .ARM.attributes
                0x00000d47       0x2f lib_generic/libgeneric.a(crc32.o)
 .ARM.attributes
                0x00000d76       0x2f lib_generic/libgeneric.a(ctype.o)
 .ARM.attributes
                0x00000da5       0x2f lib_generic/libgeneric.a(display_options.o)
 .ARM.attributes
                0x00000dd4       0x2f lib_generic/libgeneric.a(string.o)
 .ARM.attributes
                0x00000e03       0x2f lib_generic/libgeneric.a(vsprintf.o)
 .ARM.attributes
                0x00000e32       0x2f lib_generic/libgeneric.a(zlib.o)
 .ARM.attributes
                0x00000e61       0x2f board/wmt/libwmt.a(wmt.o)
 .ARM.attributes
                0x00000e90       0x2f board/wmt/libwmt.a(flash.o)
 .ARM.attributes
                0x00000ebf       0x2f board/wmt/libwmt.a(main.o)
 .ARM.attributes
                0x00000eee       0x2f board/wmt/libwmt.a(spi_flash.o)
 .ARM.attributes
                0x00000f1d       0x2f board/wmt/libwmt.a(nand_flash.o)
 .ARM.attributes
                0x00000f4c       0x2f board/wmt/libwmt.a(nor_flash_8bit.o)
 .ARM.attributes
                0x00000f7b       0x2f board/wmt/libwmt.a(nor_flash_16bit.o)
 .ARM.attributes
                0x00000faa       0x2f board/wmt/libwmt.a(wmt_clk.o)
 .ARM.attributes
                0x00000fd9       0x2f board/wmt/libwmt.a(ehci-hcd.o)
 .ARM.attributes
                0x00001008       0x2f board/wmt/libwmt.a(usb_uhci.o)
 .ARM.attributes
                0x00001037       0x2f board/wmt/libwmt.a(wmt_i2c.o)
 .ARM.attributes
                0x00001066       0x2f board/wmt/libwmt.a(wmt_i2c_1.o)
 .ARM.attributes
                0x00001095       0x2f board/wmt/libwmt.a(wmt_i2c_2.o)
 .ARM.attributes
                0x000010c4       0x2f board/wmt/libwmt.a(wmt_i2c_3.o)
 .ARM.attributes
                0x000010f3       0x2f cpu/arm920t/libarm920t.a(cpu.o)
 .ARM.attributes
                0x00001122       0x2f cpu/arm920t/wmt/libwmt.a(serial.o)
 .ARM.attributes
                0x00001151       0x2f cpu/arm920t/wmt/libwmt.a(ether.o)
 .ARM.attributes
                0x00001180       0x2f cpu/arm920t/wmt/libwmt.a(macif.o)
 .ARM.attributes
                0x000011af       0x2f cpu/arm920t/wmt/libwmt.a(adapter.o)
 .ARM.attributes
                0x000011de       0x2f cpu/arm920t/wmt/libwmt.a(alloct.o)
 .ARM.attributes
                0x0000120d       0x2f cpu/arm920t/wmt/libwmt.a(mii.o)
 .ARM.attributes
                0x0000123c       0x2f cpu/arm920t/wmt/libwmt.a(mem.o)
 .ARM.attributes
                0x0000126b       0x2f cpu/arm920t/wmt/libwmt.a(vpci.o)
 .ARM.attributes
                0x0000129a       0x2f cpu/arm920t/wmt/libwmt.a(dma.o)
 .ARM.attributes
                0x000012c9       0x2f cpu/arm920t/wmt/libwmt.a(mmc.o)
 .ARM.attributes
                0x000012f8       0x2f cpu/arm920t/wmt/libwmt.a(mac.o)
 .ARM.attributes
                0x00001327       0x2f lib_arm/libarm.a(armlinux.o)
 .ARM.attributes
                0x00001356       0x2f lib_arm/libarm.a(cache.o)
 .ARM.attributes
                0x00001385       0x2f fs/fat/libfat.a(fat.o)
 .ARM.attributes
                0x000013b4       0x2f disk/libdisk.a(part.o)
 .ARM.attributes
                0x000013e3       0x2f disk/libdisk.a(part_dos.o)
 .ARM.attributes
                0x00001412       0x2f cpu/arm920t/wmt/libwmt.a(zde.o)
 .ARM.attributes
                0x00001441       0x1f /home/pd2/toolchain/arm_201103_gcc4.5.2/bin/../lib/gcc/arm-none-linux-gnueabi/4.5.2/libgcc.a(_udivsi3.o)
 .ARM.attributes
                0x00001460       0x1f /home/pd2/toolchain/arm_201103_gcc4.5.2/bin/../lib/gcc/arm-none-linux-gnueabi/4.5.2/libgcc.a(_divsi3.o)
 .ARM.attributes
                0x0000147f       0x1f /home/pd2/toolchain/arm_201103_gcc4.5.2/bin/../lib/gcc/arm-none-linux-gnueabi/4.5.2/libgcc.a(_lshrdi3.o)
 .ARM.attributes
                0x0000149e       0x1f /home/pd2/toolchain/arm_201103_gcc4.5.2/bin/../lib/gcc/arm-none-linux-gnueabi/4.5.2/libgcc.a(_ashldi3.o)
 .ARM.attributes
                0x000014bd       0x1f /home/pd2/toolchain/arm_201103_gcc4.5.2/bin/../lib/gcc/arm-none-linux-gnueabi/4.5.2/libgcc.a(_dvmd_lnx.o)

.note.GNU-stack
                0x00000000        0x0
 .note.GNU-stack
                0x00000000        0x0 cpu/arm920t/libarm920t.a(interrupts.o)
 .note.GNU-stack
                0x00000000        0x0 cpu/arm920t/wmt/libwmt.a(interrupts.o)
 .note.GNU-stack
                0x00000000        0x0 lib_arm/libarm.a(board.o)
 .note.GNU-stack
                0x00000000        0x0 net/libnet.a(net.o)
 .note.GNU-stack
                0x00000000        0x0 net/libnet.a(tftp.o)
 .note.GNU-stack
                0x00000000        0x0 net/libnet.a(bootp.o)
 .note.GNU-stack
                0x00000000        0x0 net/libnet.a(rarp.o)
 .note.GNU-stack
                0x00000000        0x0 net/libnet.a(eth.o)
 .note.GNU-stack
                0x00000000        0x0 net/libnet.a(nfs.o)
 .note.GNU-stack
                0x00000000        0x0 common/libcommon.a(main.o)
 .note.GNU-stack
                0x00000000        0x0 common/libcommon.a(cmd_autoscript.o)
 .note.GNU-stack
                0x00000000        0x0 common/libcommon.a(cmd_bdinfo.o)
 .note.GNU-stack
                0x00000000        0x0 common/libcommon.a(cmd_boot.o)
 .note.GNU-stack
                0x00000000        0x0 common/libcommon.a(cmd_bootm.o)
 .note.GNU-stack
                0x00000000        0x0 common/libcommon.a(cmd_console.o)
 .note.GNU-stack
                0x00000000        0x0 common/libcommon.a(cmd_fat.o)
 .note.GNU-stack
                0x00000000        0x0 common/libcommon.a(cmd_flash.o)
 .note.GNU-stack
                0x00000000        0x0 common/libcommon.a(cmd_i2c.o)
 .note.GNU-stack
                0x00000000        0x0 common/libcommon.a(cmd_ide.o)
 .note.GNU-stack
                0x00000000        0x0 common/libcommon.a(cmd_itest.o)
 .note.GNU-stack
                0x00000000        0x0 common/libcommon.a(cmd_load.o)
 .note.GNU-stack
                0x00000000        0x0 common/libcommon.a(cmd_mem.o)
 .note.GNU-stack
                0x00000000        0x0 common/libcommon.a(cmd_mii.o)
 .note.GNU-stack
                0x00000000        0x0 common/libcommon.a(cmd_misc.o)
 .note.GNU-stack
                0x00000000        0x0 common/libcommon.a(cmd_mmc.o)
 .note.GNU-stack
                0x00000000        0x0 common/libcommon.a(cmd_dma.o)
 .note.GNU-stack
                0x00000000        0x0 common/libcommon.a(cmd_nand.o)
 .note.GNU-stack
                0x00000000        0x0 common/libcommon.a(cmd_net.o)
 .note.GNU-stack
                0x00000000        0x0 common/libcommon.a(cmd_nvedit.o)
 .note.GNU-stack
                0x00000000        0x0 common/libcommon.a(cmd_usb.o)
 .note.GNU-stack
                0x00000000        0x0 common/libcommon.a(command.o)
 .note.GNU-stack
                0x00000000        0x0 common/libcommon.a(console.o)
 .note.GNU-stack
                0x00000000        0x0 common/libcommon.a(devices.o)
 .note.GNU-stack
                0x00000000        0x0 common/libcommon.a(dlmalloc.o)
 .note.GNU-stack
                0x00000000        0x0 common/libcommon.a(env_common.o)
 .note.GNU-stack
                0x00000000        0x0 common/libcommon.a(env_flash.o)
 .note.GNU-stack
                0x00000000        0x0 common/libcommon.a(exports.o)
 .note.GNU-stack
                0x00000000        0x0 common/libcommon.a(wmt_cmd_display.o)
 .note.GNU-stack
                0x00000000        0x0 common/libcommon.a(minivgui.o)
 .note.GNU-stack
                0x00000000        0x0 common/libcommon.a(uboot-vpp.o)
 .note.GNU-stack
                0x00000000        0x0 common/libcommon.a(cmd_mbit.o)
 .note.GNU-stack
                0x00000000        0x0 common/libcommon.a(cmd_textout.o)
 .note.GNU-stack
                0x00000000        0x0 common/libcommon.a(env_parse.o)
 .note.GNU-stack
                0x00000000        0x0 common/libcommon.a(flash.o)
 .note.GNU-stack
                0x00000000        0x0 common/libcommon.a(hush.o)
 .note.GNU-stack
                0x00000000        0x0 common/libcommon.a(lists.o)
 .note.GNU-stack
                0x00000000        0x0 common/libcommon.a(miiphyutil.o)
 .note.GNU-stack
                0x00000000        0x0 common/libcommon.a(s_record.o)
 .note.GNU-stack
                0x00000000        0x0 common/libcommon.a(usb.o)
 .note.GNU-stack
                0x00000000        0x0 common/libcommon.a(usb_storage.o)
 .note.GNU-stack
                0x00000000        0x0 common/libcommon.a(pwm.o)
 .note.GNU-stack
                0x00000000        0x0 common/libcommon.a(govrh.o)
 .note.GNU-stack
                0x00000000        0x0 common/libcommon.a(vout.o)
 .note.GNU-stack
                0x00000000        0x0 common/libcommon.a(lcd.o)
 .note.GNU-stack
                0x00000000        0x0 common/libcommon.a(lvds.o)
 .note.GNU-stack
                0x00000000        0x0 common/libcommon.a(vpp.o)
 .note.GNU-stack
                0x00000000        0x0 common/libcommon.a(hdmi.o)
 .note.GNU-stack
                0x00000000        0x0 common/libcommon.a(parse-edid.o)
 .note.GNU-stack
                0x00000000        0x0 common/libcommon.a(vout-wmt.o)
 .note.GNU-stack
                0x00000000        0x0 common/libcommon.a(lcd-oem.o)
 .note.GNU-stack
                0x00000000        0x0 common/libcommon.a(lcd-AUO-A080SN01.o)
 .note.GNU-stack
                0x00000000        0x0 common/libcommon.a(lcd-INNOLUX-AT070TN83.o)
 .note.GNU-stack
                0x00000000        0x0 common/libcommon.a(lcd-CHILIN-LW700at9003.o)
 .note.GNU-stack
                0x00000000        0x0 common/libcommon.a(lcd-EKING-EK08009-70135.o)
 .note.GNU-stack
                0x00000000        0x0 common/libcommon.a(lcd-HANNSTAR-HSD101PFW2.o)
 .note.GNU-stack
                0x00000000        0x0 common/libcommon.a(vt1632.o)
 .note.GNU-stack
                0x00000000        0x0 common/libcommon.a(sil902x.o)
 .note.GNU-stack
                0x00000000        0x0 common/libcommon.a(cs8556.o)
 .note.GNU-stack
                0x00000000        0x0 common/libcommon.a(wmt-ost.o)
 .note.GNU-stack
                0x00000000        0x0 common/libcommon.a(vpp-osif.o)
 .note.GNU-stack
                0x00000000        0x0 common/libcommon.a(sw_i2c.o)
 .note.GNU-stack
                0x00000000        0x0 lib_generic/libgeneric.a(crc32.o)
 .note.GNU-stack
                0x00000000        0x0 lib_generic/libgeneric.a(ctype.o)
 .note.GNU-stack
                0x00000000        0x0 lib_generic/libgeneric.a(display_options.o)
 .note.GNU-stack
                0x00000000        0x0 lib_generic/libgeneric.a(string.o)
 .note.GNU-stack
                0x00000000        0x0 lib_generic/libgeneric.a(vsprintf.o)
 .note.GNU-stack
                0x00000000        0x0 lib_generic/libgeneric.a(zlib.o)
 .note.GNU-stack
                0x00000000        0x0 board/wmt/libwmt.a(wmt.o)
 .note.GNU-stack
                0x00000000        0x0 board/wmt/libwmt.a(flash.o)
 .note.GNU-stack
                0x00000000        0x0 board/wmt/libwmt.a(main.o)
 .note.GNU-stack
                0x00000000        0x0 board/wmt/libwmt.a(spi_flash.o)
 .note.GNU-stack
                0x00000000        0x0 board/wmt/libwmt.a(nand_flash.o)
 .note.GNU-stack
                0x00000000        0x0 board/wmt/libwmt.a(nor_flash_8bit.o)
 .note.GNU-stack
                0x00000000        0x0 board/wmt/libwmt.a(nor_flash_16bit.o)
 .note.GNU-stack
                0x00000000        0x0 board/wmt/libwmt.a(wmt_clk.o)
 .note.GNU-stack
                0x00000000        0x0 board/wmt/libwmt.a(ehci-hcd.o)
 .note.GNU-stack
                0x00000000        0x0 board/wmt/libwmt.a(usb_uhci.o)
 .note.GNU-stack
                0x00000000        0x0 board/wmt/libwmt.a(wmt_i2c.o)
 .note.GNU-stack
                0x00000000        0x0 board/wmt/libwmt.a(wmt_i2c_1.o)
 .note.GNU-stack
                0x00000000        0x0 board/wmt/libwmt.a(wmt_i2c_2.o)
 .note.GNU-stack
                0x00000000        0x0 board/wmt/libwmt.a(wmt_i2c_3.o)
 .note.GNU-stack
                0x00000000        0x0 cpu/arm920t/libarm920t.a(cpu.o)
 .note.GNU-stack
                0x00000000        0x0 cpu/arm920t/wmt/libwmt.a(serial.o)
 .note.GNU-stack
                0x00000000        0x0 cpu/arm920t/wmt/libwmt.a(ether.o)
 .note.GNU-stack
                0x00000000        0x0 cpu/arm920t/wmt/libwmt.a(macif.o)
 .note.GNU-stack
                0x00000000        0x0 cpu/arm920t/wmt/libwmt.a(adapter.o)
 .note.GNU-stack
                0x00000000        0x0 cpu/arm920t/wmt/libwmt.a(alloct.o)
 .note.GNU-stack
                0x00000000        0x0 cpu/arm920t/wmt/libwmt.a(mii.o)
 .note.GNU-stack
                0x00000000        0x0 cpu/arm920t/wmt/libwmt.a(mem.o)
 .note.GNU-stack
                0x00000000        0x0 cpu/arm920t/wmt/libwmt.a(vpci.o)
 .note.GNU-stack
                0x00000000        0x0 cpu/arm920t/wmt/libwmt.a(dma.o)
 .note.GNU-stack
                0x00000000        0x0 cpu/arm920t/wmt/libwmt.a(mmc.o)
 .note.GNU-stack
                0x00000000        0x0 cpu/arm920t/wmt/libwmt.a(mac.o)
 .note.GNU-stack
                0x00000000        0x0 lib_arm/libarm.a(armlinux.o)
 .note.GNU-stack
                0x00000000        0x0 lib_arm/libarm.a(cache.o)
 .note.GNU-stack
                0x00000000        0x0 fs/fat/libfat.a(fat.o)
 .note.GNU-stack
                0x00000000        0x0 disk/libdisk.a(part.o)
 .note.GNU-stack
                0x00000000        0x0 disk/libdisk.a(part_dos.o)
 .note.GNU-stack
                0x00000000        0x0 cpu/arm920t/wmt/libwmt.a(zde.o)
 .note.GNU-stack
                0x00000000        0x0 /home/pd2/toolchain/arm_201103_gcc4.5.2/bin/../lib/gcc/arm-none-linux-gnueabi/4.5.2/libgcc.a(_udivsi3.o)
 .note.GNU-stack
                0x00000000        0x0 /home/pd2/toolchain/arm_201103_gcc4.5.2/bin/../lib/gcc/arm-none-linux-gnueabi/4.5.2/libgcc.a(_divsi3.o)
 .note.GNU-stack
                0x00000000        0x0 /home/pd2/toolchain/arm_201103_gcc4.5.2/bin/../lib/gcc/arm-none-linux-gnueabi/4.5.2/libgcc.a(_lshrdi3.o)
 .note.GNU-stack
                0x00000000        0x0 /home/pd2/toolchain/arm_201103_gcc4.5.2/bin/../lib/gcc/arm-none-linux-gnueabi/4.5.2/libgcc.a(_ashldi3.o)
 .note.GNU-stack
                0x00000000        0x0 /home/pd2/toolchain/arm_201103_gcc4.5.2/bin/../lib/gcc/arm-none-linux-gnueabi/4.5.2/libgcc.a(_dvmd_lnx.o)

.comment        0x00000000       0x2a
 *(.comment)
 .comment       0x00000000       0x2a cpu/arm920t/libarm920t.a(interrupts.o)
                                 0x2b (size before relaxing)
 .comment       0x00000000       0x2b cpu/arm920t/wmt/libwmt.a(interrupts.o)
 .comment       0x00000000       0x2b lib_arm/libarm.a(board.o)
 .comment       0x00000000       0x2b net/libnet.a(net.o)
 .comment       0x00000000       0x2b net/libnet.a(tftp.o)
 .comment       0x00000000       0x2b net/libnet.a(bootp.o)
 .comment       0x00000000       0x2b net/libnet.a(rarp.o)
 .comment       0x00000000       0x2b net/libnet.a(eth.o)
 .comment       0x00000000       0x2b net/libnet.a(nfs.o)
 .comment       0x00000000       0x2b common/libcommon.a(main.o)
 .comment       0x00000000       0x2b common/libcommon.a(cmd_autoscript.o)
 .comment       0x00000000       0x2b common/libcommon.a(cmd_bdinfo.o)
 .comment       0x00000000       0x2b common/libcommon.a(cmd_boot.o)
 .comment       0x00000000       0x2b common/libcommon.a(cmd_bootm.o)
 .comment       0x00000000       0x2b common/libcommon.a(cmd_console.o)
 .comment       0x00000000       0x2b common/libcommon.a(cmd_fat.o)
 .comment       0x00000000       0x2b common/libcommon.a(cmd_flash.o)
 .comment       0x00000000       0x2b common/libcommon.a(cmd_i2c.o)
 .comment       0x00000000       0x2b common/libcommon.a(cmd_ide.o)
 .comment       0x00000000       0x2b common/libcommon.a(cmd_itest.o)
 .comment       0x00000000       0x2b common/libcommon.a(cmd_load.o)
 .comment       0x00000000       0x2b common/libcommon.a(cmd_mem.o)
 .comment       0x00000000       0x2b common/libcommon.a(cmd_mii.o)
 .comment       0x00000000       0x2b common/libcommon.a(cmd_misc.o)
 .comment       0x00000000       0x2b common/libcommon.a(cmd_mmc.o)
 .comment       0x00000000       0x2b common/libcommon.a(cmd_dma.o)
 .comment       0x00000000       0x2b common/libcommon.a(cmd_nand.o)
 .comment       0x00000000       0x2b common/libcommon.a(cmd_net.o)
 .comment       0x00000000       0x2b common/libcommon.a(cmd_nvedit.o)
 .comment       0x00000000       0x2b common/libcommon.a(cmd_usb.o)
 .comment       0x00000000       0x2b common/libcommon.a(command.o)
 .comment       0x00000000       0x2b common/libcommon.a(console.o)
 .comment       0x00000000       0x2b common/libcommon.a(devices.o)
 .comment       0x00000000       0x2b common/libcommon.a(dlmalloc.o)
 .comment       0x00000000       0x2b common/libcommon.a(env_common.o)
 .comment       0x00000000       0x2b common/libcommon.a(env_flash.o)
 .comment       0x00000000       0x2b common/libcommon.a(exports.o)
 .comment       0x00000000       0x2b common/libcommon.a(wmt_cmd_display.o)
 .comment       0x00000000       0x2b common/libcommon.a(minivgui.o)
 .comment       0x00000000       0x2b common/libcommon.a(uboot-vpp.o)
 .comment       0x00000000       0x2b common/libcommon.a(cmd_mbit.o)
 .comment       0x00000000       0x2b common/libcommon.a(cmd_textout.o)
 .comment       0x00000000       0x2b common/libcommon.a(env_parse.o)
 .comment       0x00000000       0x2b common/libcommon.a(flash.o)
 .comment       0x00000000       0x2b common/libcommon.a(hush.o)
 .comment       0x00000000       0x2b common/libcommon.a(lists.o)
 .comment       0x00000000       0x2b common/libcommon.a(miiphyutil.o)
 .comment       0x00000000       0x2b common/libcommon.a(s_record.o)
 .comment       0x00000000       0x2b common/libcommon.a(usb.o)
 .comment       0x00000000       0x2b common/libcommon.a(usb_storage.o)
 .comment       0x00000000       0x2b common/libcommon.a(pwm.o)
 .comment       0x00000000       0x2b common/libcommon.a(govrh.o)
 .comment       0x00000000       0x2b common/libcommon.a(vout.o)
 .comment       0x00000000       0x2b common/libcommon.a(lcd.o)
 .comment       0x00000000       0x2b common/libcommon.a(lvds.o)
 .comment       0x00000000       0x2b common/libcommon.a(vpp.o)
 .comment       0x00000000       0x2b common/libcommon.a(hdmi.o)
 .comment       0x00000000       0x2b common/libcommon.a(parse-edid.o)
 .comment       0x00000000       0x2b common/libcommon.a(vout-wmt.o)
 .comment       0x00000000       0x2b common/libcommon.a(lcd-oem.o)
 .comment       0x00000000       0x2b common/libcommon.a(lcd-AUO-A080SN01.o)
 .comment       0x00000000       0x2b common/libcommon.a(lcd-INNOLUX-AT070TN83.o)
 .comment       0x00000000       0x2b common/libcommon.a(lcd-CHILIN-LW700at9003.o)
 .comment       0x00000000       0x2b common/libcommon.a(lcd-EKING-EK08009-70135.o)
 .comment       0x00000000       0x2b common/libcommon.a(lcd-HANNSTAR-HSD101PFW2.o)
 .comment       0x00000000       0x2b common/libcommon.a(vt1632.o)
 .comment       0x00000000       0x2b common/libcommon.a(sil902x.o)
 .comment       0x00000000       0x2b common/libcommon.a(cs8556.o)
 .comment       0x00000000       0x2b common/libcommon.a(wmt-ost.o)
 .comment       0x00000000       0x2b common/libcommon.a(vpp-osif.o)
 .comment       0x00000000       0x2b common/libcommon.a(sw_i2c.o)
 .comment       0x00000000       0x2b lib_generic/libgeneric.a(crc32.o)
 .comment       0x00000000       0x2b lib_generic/libgeneric.a(ctype.o)
 .comment       0x00000000       0x2b lib_generic/libgeneric.a(display_options.o)
 .comment       0x00000000       0x2b lib_generic/libgeneric.a(string.o)
 .comment       0x00000000       0x2b lib_generic/libgeneric.a(vsprintf.o)
 .comment       0x00000000       0x2b lib_generic/libgeneric.a(zlib.o)
 .comment       0x00000000       0x2b board/wmt/libwmt.a(wmt.o)
 .comment       0x00000000       0x2b board/wmt/libwmt.a(flash.o)
 .comment       0x00000000       0x2b board/wmt/libwmt.a(main.o)
 .comment       0x00000000       0x2b board/wmt/libwmt.a(spi_flash.o)
 .comment       0x00000000       0x2b board/wmt/libwmt.a(nand_flash.o)
 .comment       0x00000000       0x2b board/wmt/libwmt.a(nor_flash_8bit.o)
 .comment       0x00000000       0x2b board/wmt/libwmt.a(nor_flash_16bit.o)
 .comment       0x00000000       0x2b board/wmt/libwmt.a(wmt_clk.o)
 .comment       0x00000000       0x2b board/wmt/libwmt.a(ehci-hcd.o)
 .comment       0x00000000       0x2b board/wmt/libwmt.a(usb_uhci.o)
 .comment       0x00000000       0x2b board/wmt/libwmt.a(wmt_i2c.o)
 .comment       0x00000000       0x2b board/wmt/libwmt.a(wmt_i2c_1.o)
 .comment       0x00000000       0x2b board/wmt/libwmt.a(wmt_i2c_2.o)
 .comment       0x00000000       0x2b board/wmt/libwmt.a(wmt_i2c_3.o)
 .comment       0x00000000       0x2b cpu/arm920t/libarm920t.a(cpu.o)
 .comment       0x00000000       0x2b cpu/arm920t/wmt/libwmt.a(serial.o)
 .comment       0x00000000       0x2b cpu/arm920t/wmt/libwmt.a(ether.o)
 .comment       0x00000000       0x2b cpu/arm920t/wmt/libwmt.a(macif.o)
 .comment       0x00000000       0x2b cpu/arm920t/wmt/libwmt.a(adapter.o)
 .comment       0x00000000       0x2b cpu/arm920t/wmt/libwmt.a(alloct.o)
 .comment       0x00000000       0x2b cpu/arm920t/wmt/libwmt.a(mii.o)
 .comment       0x00000000       0x2b cpu/arm920t/wmt/libwmt.a(mem.o)
 .comment       0x00000000       0x2b cpu/arm920t/wmt/libwmt.a(vpci.o)
 .comment       0x00000000       0x2b cpu/arm920t/wmt/libwmt.a(dma.o)
 .comment       0x00000000       0x2b cpu/arm920t/wmt/libwmt.a(mmc.o)
 .comment       0x00000000       0x2b cpu/arm920t/wmt/libwmt.a(mac.o)
 .comment       0x00000000       0x2b lib_arm/libarm.a(armlinux.o)
 .comment       0x00000000       0x2b lib_arm/libarm.a(cache.o)
 .comment       0x00000000       0x2b fs/fat/libfat.a(fat.o)
 .comment       0x00000000       0x2b disk/libdisk.a(part.o)
 .comment       0x00000000       0x2b disk/libdisk.a(part_dos.o)
 .comment       0x00000000       0x2b cpu/arm920t/wmt/libwmt.a(zde.o)

.debug
 *(.debug)

.line
 *(.line)

.debug_srcinfo
 *(.debug_srcinfo)

.debug_sfnames
 *(.debug_sfnames)

.debug_aranges  0x00000000      0xdc0
 *(.debug_aranges)
 .debug_aranges
                0x00000000       0x20 cpu/arm920t/start.o
 .debug_aranges
                0x00000020       0x20 board/wmt/libwmt.a(lowlevel_init.o)
 .debug_aranges
                0x00000040       0x20 cpu/arm920t/libarm920t.a(interrupts.o)
 .debug_aranges
                0x00000060       0x20 cpu/arm920t/wmt/libwmt.a(interrupts.o)
 .debug_aranges
                0x00000080       0x20 lib_arm/libarm.a(board.o)
 .debug_aranges
                0x000000a0       0x20 net/libnet.a(net.o)
 .debug_aranges
                0x000000c0       0x20 net/libnet.a(tftp.o)
 .debug_aranges
                0x000000e0       0x20 net/libnet.a(bootp.o)
 .debug_aranges
                0x00000100       0x20 net/libnet.a(rarp.o)
 .debug_aranges
                0x00000120       0x20 net/libnet.a(eth.o)
 .debug_aranges
                0x00000140       0x20 net/libnet.a(nfs.o)
 .debug_aranges
                0x00000160       0x20 common/libcommon.a(main.o)
 .debug_aranges
                0x00000180       0x20 common/libcommon.a(cmd_autoscript.o)
 .debug_aranges
                0x000001a0       0x20 common/libcommon.a(cmd_bdinfo.o)
 .debug_aranges
                0x000001c0       0x20 common/libcommon.a(cmd_boot.o)
 .debug_aranges
                0x000001e0       0x20 common/libcommon.a(cmd_bootm.o)
 .debug_aranges
                0x00000200       0x20 common/libcommon.a(cmd_console.o)
 .debug_aranges
                0x00000220       0x20 common/libcommon.a(cmd_fat.o)
 .debug_aranges
                0x00000240       0x20 common/libcommon.a(cmd_flash.o)
 .debug_aranges
                0x00000260       0x20 common/libcommon.a(cmd_i2c.o)
 .debug_aranges
                0x00000280       0x20 common/libcommon.a(cmd_ide.o)
 .debug_aranges
                0x000002a0       0x20 common/libcommon.a(cmd_itest.o)
 .debug_aranges
                0x000002c0       0x20 common/libcommon.a(cmd_load.o)
 .debug_aranges
                0x000002e0       0x20 common/libcommon.a(cmd_mem.o)
 .debug_aranges
                0x00000300       0x20 common/libcommon.a(cmd_mii.o)
 .debug_aranges
                0x00000320       0x20 common/libcommon.a(cmd_misc.o)
 .debug_aranges
                0x00000340       0x20 common/libcommon.a(cmd_mmc.o)
 .debug_aranges
                0x00000360       0x20 common/libcommon.a(cmd_dma.o)
 .debug_aranges
                0x00000380       0x20 common/libcommon.a(cmd_nand.o)
 .debug_aranges
                0x000003a0       0x20 common/libcommon.a(cmd_net.o)
 .debug_aranges
                0x000003c0       0x20 common/libcommon.a(cmd_nvedit.o)
 .debug_aranges
                0x000003e0       0x20 common/libcommon.a(cmd_usb.o)
 .debug_aranges
                0x00000400       0x20 common/libcommon.a(command.o)
 .debug_aranges
                0x00000420       0x20 common/libcommon.a(console.o)
 .debug_aranges
                0x00000440       0x20 common/libcommon.a(devices.o)
 .debug_aranges
                0x00000460       0x20 common/libcommon.a(dlmalloc.o)
 .debug_aranges
                0x00000480       0x20 common/libcommon.a(env_common.o)
 .debug_aranges
                0x000004a0       0x20 common/libcommon.a(env_flash.o)
 .debug_aranges
                0x000004c0       0x20 common/libcommon.a(exports.o)
 .debug_aranges
                0x000004e0       0x20 common/libcommon.a(wmt_cmd_display.o)
 .debug_aranges
                0x00000500       0x20 common/libcommon.a(minivgui.o)
 .debug_aranges
                0x00000520       0x20 common/libcommon.a(uboot-vpp.o)
 .debug_aranges
                0x00000540       0x20 common/libcommon.a(cmd_mbit.o)
 .debug_aranges
                0x00000560       0x20 common/libcommon.a(cmd_textout.o)
 .debug_aranges
                0x00000580       0x20 common/libcommon.a(env_parse.o)
 .debug_aranges
                0x000005a0       0x20 common/libcommon.a(flash.o)
 .debug_aranges
                0x000005c0       0x20 common/libcommon.a(hush.o)
 .debug_aranges
                0x000005e0       0x20 common/libcommon.a(lists.o)
 .debug_aranges
                0x00000600       0x20 common/libcommon.a(miiphyutil.o)
 .debug_aranges
                0x00000620       0x20 common/libcommon.a(s_record.o)
 .debug_aranges
                0x00000640       0x20 common/libcommon.a(usb.o)
 .debug_aranges
                0x00000660       0x20 common/libcommon.a(usb_storage.o)
 .debug_aranges
                0x00000680       0x20 common/libcommon.a(pwm.o)
 .debug_aranges
                0x000006a0       0x20 common/libcommon.a(govrh.o)
 .debug_aranges
                0x000006c0       0x20 common/libcommon.a(vout.o)
 .debug_aranges
                0x000006e0       0x20 common/libcommon.a(lcd.o)
 .debug_aranges
                0x00000700       0x20 common/libcommon.a(lvds.o)
 .debug_aranges
                0x00000720       0x20 common/libcommon.a(vpp.o)
 .debug_aranges
                0x00000740       0x20 common/libcommon.a(hdmi.o)
 .debug_aranges
                0x00000760       0x20 common/libcommon.a(parse-edid.o)
 .debug_aranges
                0x00000780       0x20 common/libcommon.a(vout-wmt.o)
 .debug_aranges
                0x000007a0       0x20 common/libcommon.a(lcd-oem.o)
 .debug_aranges
                0x000007c0       0x20 common/libcommon.a(lcd-AUO-A080SN01.o)
 .debug_aranges
                0x000007e0       0x20 common/libcommon.a(lcd-INNOLUX-AT070TN83.o)
 .debug_aranges
                0x00000800       0x20 common/libcommon.a(lcd-CHILIN-LW700at9003.o)
 .debug_aranges
                0x00000820       0x20 common/libcommon.a(lcd-EKING-EK08009-70135.o)
 .debug_aranges
                0x00000840       0x20 common/libcommon.a(lcd-HANNSTAR-HSD101PFW2.o)
 .debug_aranges
                0x00000860       0x20 common/libcommon.a(vt1632.o)
 .debug_aranges
                0x00000880       0x20 common/libcommon.a(sil902x.o)
 .debug_aranges
                0x000008a0       0x20 common/libcommon.a(cs8556.o)
 .debug_aranges
                0x000008c0       0x20 common/libcommon.a(wmt-ost.o)
 .debug_aranges
                0x000008e0       0x20 common/libcommon.a(vpp-osif.o)
 .debug_aranges
                0x00000900       0x20 common/libcommon.a(sw_i2c.o)
 .debug_aranges
                0x00000920       0x20 lib_generic/libgeneric.a(crc32.o)
 .debug_aranges
                0x00000940       0x20 lib_generic/libgeneric.a(display_options.o)
 .debug_aranges
                0x00000960       0x20 lib_generic/libgeneric.a(string.o)
 .debug_aranges
                0x00000980       0x20 lib_generic/libgeneric.a(vsprintf.o)
 .debug_aranges
                0x000009a0       0x20 lib_generic/libgeneric.a(zlib.o)
 .debug_aranges
                0x000009c0       0x20 board/wmt/libwmt.a(wmt.o)
 .debug_aranges
                0x000009e0       0x20 board/wmt/libwmt.a(flash.o)
 .debug_aranges
                0x00000a00       0x20 board/wmt/libwmt.a(main.o)
 .debug_aranges
                0x00000a20       0x20 board/wmt/libwmt.a(spi_flash.o)
 .debug_aranges
                0x00000a40       0x20 board/wmt/libwmt.a(nand_flash.o)
 .debug_aranges
                0x00000a60       0x20 board/wmt/libwmt.a(nor_flash_8bit.o)
 .debug_aranges
                0x00000a80       0x20 board/wmt/libwmt.a(nor_flash_16bit.o)
 .debug_aranges
                0x00000aa0       0x20 board/wmt/libwmt.a(wmt_clk.o)
 .debug_aranges
                0x00000ac0       0x20 board/wmt/libwmt.a(ehci-hcd.o)
 .debug_aranges
                0x00000ae0       0x20 board/wmt/libwmt.a(usb_uhci.o)
 .debug_aranges
                0x00000b00       0x20 board/wmt/libwmt.a(wmt_i2c.o)
 .debug_aranges
                0x00000b20       0x20 board/wmt/libwmt.a(wmt_i2c_1.o)
 .debug_aranges
                0x00000b40       0x20 board/wmt/libwmt.a(wmt_i2c_2.o)
 .debug_aranges
                0x00000b60       0x20 board/wmt/libwmt.a(wmt_i2c_3.o)
 .debug_aranges
                0x00000b80       0x20 cpu/arm920t/libarm920t.a(cpu.o)
 .debug_aranges
                0x00000ba0       0x20 cpu/arm920t/wmt/libwmt.a(serial.o)
 .debug_aranges
                0x00000bc0       0x20 cpu/arm920t/wmt/libwmt.a(ether.o)
 .debug_aranges
                0x00000be0       0x20 cpu/arm920t/wmt/libwmt.a(macif.o)
 .debug_aranges
                0x00000c00       0x20 cpu/arm920t/wmt/libwmt.a(adapter.o)
 .debug_aranges
                0x00000c20       0x20 cpu/arm920t/wmt/libwmt.a(alloct.o)
 .debug_aranges
                0x00000c40       0x20 cpu/arm920t/wmt/libwmt.a(mii.o)
 .debug_aranges
                0x00000c60       0x20 cpu/arm920t/wmt/libwmt.a(mem.o)
 .debug_aranges
                0x00000c80       0x20 cpu/arm920t/wmt/libwmt.a(vpci.o)
 .debug_aranges
                0x00000ca0       0x20 cpu/arm920t/wmt/libwmt.a(dma.o)
 .debug_aranges
                0x00000cc0       0x20 cpu/arm920t/wmt/libwmt.a(mmc.o)
 .debug_aranges
                0x00000ce0       0x20 cpu/arm920t/wmt/libwmt.a(mac.o)
 .debug_aranges
                0x00000d00       0x20 lib_arm/libarm.a(armlinux.o)
 .debug_aranges
                0x00000d20       0x20 lib_arm/libarm.a(cache.o)
 .debug_aranges
                0x00000d40       0x20 fs/fat/libfat.a(fat.o)
 .debug_aranges
                0x00000d60       0x20 disk/libdisk.a(part.o)
 .debug_aranges
                0x00000d80       0x20 disk/libdisk.a(part_dos.o)
 .debug_aranges
                0x00000da0       0x20 cpu/arm920t/wmt/libwmt.a(zde.o)

.debug_pubnames
                0x00000000     0x6e8d
 *(.debug_pubnames)
 .debug_pubnames
                0x00000000       0xdf cpu/arm920t/libarm920t.a(interrupts.o)
 .debug_pubnames
                0x000000df       0xc4 cpu/arm920t/wmt/libwmt.a(interrupts.o)
 .debug_pubnames
                0x000001a3       0x90 lib_arm/libarm.a(board.o)
 .debug_pubnames
                0x00000233      0x3f9 net/libnet.a(net.o)
 .debug_pubnames
                0x0000062c       0x20 net/libnet.a(tftp.o)
 .debug_pubnames
                0x0000064c       0x82 net/libnet.a(bootp.o)
 .debug_pubnames
                0x000006ce       0x2e net/libnet.a(rarp.o)
 .debug_pubnames
                0x000006fc       0x54 net/libnet.a(eth.o)
 .debug_pubnames
                0x00000750       0x1f net/libnet.a(nfs.o)
 .debug_pubnames
                0x0000076f       0x5b common/libcommon.a(main.o)
 .debug_pubnames
                0x000007ca       0x4c common/libcommon.a(cmd_autoscript.o)
 .debug_pubnames
                0x00000816       0x3f common/libcommon.a(cmd_bdinfo.o)
 .debug_pubnames
                0x00000855       0x47 common/libcommon.a(cmd_boot.o)
 .debug_pubnames
                0x0000089c       0xeb common/libcommon.a(cmd_bootm.o)
 .debug_pubnames
                0x00000987       0x3a common/libcommon.a(cmd_console.o)
 .debug_pubnames
                0x000009c1       0xc6 common/libcommon.a(cmd_fat.o)
 .debug_pubnames
                0x00000a87       0xb2 common/libcommon.a(cmd_flash.o)
 .debug_pubnames
                0x00000b39      0x13d common/libcommon.a(cmd_i2c.o)
 .debug_pubnames
                0x00000c76       0xb8 common/libcommon.a(cmd_ide.o)
 .debug_pubnames
                0x00000d2e       0x53 common/libcommon.a(cmd_itest.o)
 .debug_pubnames
                0x00000d81      0x1b9 common/libcommon.a(cmd_load.o)
 .debug_pubnames
                0x00000f3a      0x1e7 common/libcommon.a(cmd_mem.o)
 .debug_pubnames
                0x00001121      0x13e common/libcommon.a(cmd_mii.o)
 .debug_pubnames
                0x0000125f       0x36 common/libcommon.a(cmd_misc.o)
 .debug_pubnames
                0x00001295      0x110 common/libcommon.a(cmd_mmc.o)
 .debug_pubnames
                0x000013a5       0x64 common/libcommon.a(cmd_dma.o)
 .debug_pubnames
                0x00001409      0x862 common/libcommon.a(cmd_nand.o)
 .debug_pubnames
                0x00001c6b       0xe8 common/libcommon.a(cmd_net.o)
 .debug_pubnames
                0x00001d53       0xd8 common/libcommon.a(cmd_nvedit.o)
 .debug_pubnames
                0x00001e2b      0x142 common/libcommon.a(cmd_usb.o)
 .debug_pubnames
                0x00001f6d      0x12f common/libcommon.a(command.o)
 .debug_pubnames
                0x0000209c      0x115 common/libcommon.a(console.o)
 .debug_pubnames
                0x000021b1       0x76 common/libcommon.a(devices.o)
 .debug_pubnames
                0x00002227       0xba common/libcommon.a(dlmalloc.o)
 .debug_pubnames
                0x000022e1       0xa0 common/libcommon.a(env_common.o)
 .debug_pubnames
                0x00002381       0x7c common/libcommon.a(env_flash.o)
 .debug_pubnames
                0x000023fd       0x3c common/libcommon.a(exports.o)
 .debug_pubnames
                0x00002439       0x5e common/libcommon.a(wmt_cmd_display.o)
 .debug_pubnames
                0x00002497       0xa2 common/libcommon.a(minivgui.o)
 .debug_pubnames
                0x00002539      0x138 common/libcommon.a(uboot-vpp.o)
 .debug_pubnames
                0x00002671       0x3a common/libcommon.a(cmd_mbit.o)
 .debug_pubnames
                0x000026ab       0x50 common/libcommon.a(cmd_textout.o)
 .debug_pubnames
                0x000026fb       0x40 common/libcommon.a(env_parse.o)
 .debug_pubnames
                0x0000273b       0x53 common/libcommon.a(flash.o)
 .debug_pubnames
                0x0000278e       0xcf common/libcommon.a(hush.o)
 .debug_pubnames
                0x0000285d      0x116 common/libcommon.a(lists.o)
 .debug_pubnames
                0x00002973       0xe4 common/libcommon.a(miiphyutil.o)
 .debug_pubnames
                0x00002a57       0x22 common/libcommon.a(s_record.o)
 .debug_pubnames
                0x00002a79      0x35a common/libcommon.a(usb.o)
 .debug_pubnames
                0x00002dd3      0x15e common/libcommon.a(usb_storage.o)
 .debug_pubnames
                0x00002f31      0x109 common/libcommon.a(pwm.o)
 .debug_pubnames
                0x0000303a      0x820 common/libcommon.a(govrh.o)
 .debug_pubnames
                0x0000385a      0x321 common/libcommon.a(vout.o)
 .debug_pubnames
                0x00003b7b      0x186 common/libcommon.a(lcd.o)
 .debug_pubnames
                0x00003d01       0xb4 common/libcommon.a(lvds.o)
 .debug_pubnames
                0x00003db5      0x4ac common/libcommon.a(vpp.o)
 .debug_pubnames
                0x00004261      0x3c5 common/libcommon.a(hdmi.o)
 .debug_pubnames
                0x00004626       0xcf common/libcommon.a(parse-edid.o)
 .debug_pubnames
                0x000046f5      0x257 common/libcommon.a(vout-wmt.o)
 .debug_pubnames
                0x0000494c       0xc5 common/libcommon.a(lcd-oem.o)
 .debug_pubnames
                0x00004a11       0x58 common/libcommon.a(lcd-AUO-A080SN01.o)
 .debug_pubnames
                0x00004a69       0x5b common/libcommon.a(lcd-INNOLUX-AT070TN83.o)
 .debug_pubnames
                0x00004ac4       0x61 common/libcommon.a(lcd-CHILIN-LW700at9003.o)
 .debug_pubnames
                0x00004b25       0x55 common/libcommon.a(lcd-EKING-EK08009-70135.o)
 .debug_pubnames
                0x00004b7a       0x5e common/libcommon.a(lcd-HANNSTAR-HSD101PFW2.o)
 .debug_pubnames
                0x00004bd8       0xd2 common/libcommon.a(vt1632.o)
 .debug_pubnames
                0x00004caa       0x2a common/libcommon.a(sil902x.o)
 .debug_pubnames
                0x00004cd4      0x174 common/libcommon.a(cs8556.o)
 .debug_pubnames
                0x00004e48       0x58 common/libcommon.a(wmt-ost.o)
 .debug_pubnames
                0x00004ea0      0x1fa common/libcommon.a(vpp-osif.o)
 .debug_pubnames
                0x0000509a      0x1d7 common/libcommon.a(sw_i2c.o)
 .debug_pubnames
                0x00005271       0x1c lib_generic/libgeneric.a(crc32.o)
 .debug_pubnames
                0x0000528d       0x1d lib_generic/libgeneric.a(ctype.o)
 .debug_pubnames
                0x000052aa       0x35 lib_generic/libgeneric.a(display_options.o)
 .debug_pubnames
                0x000052df      0x13d lib_generic/libgeneric.a(string.o)
 .debug_pubnames
                0x0000541c       0x6e lib_generic/libgeneric.a(vsprintf.o)
 .debug_pubnames
                0x0000548a       0xab lib_generic/libgeneric.a(zlib.o)
 .debug_pubnames
                0x00005535       0x61 board/wmt/libwmt.a(wmt.o)
 .debug_pubnames
                0x00005596      0x12b board/wmt/libwmt.a(flash.o)
 .debug_pubnames
                0x000056c1       0x2b board/wmt/libwmt.a(main.o)
 .debug_pubnames
                0x000056ec       0x7a board/wmt/libwmt.a(spi_flash.o)
 .debug_pubnames
                0x00005766       0x69 board/wmt/libwmt.a(nand_flash.o)
 .debug_pubnames
                0x000057cf       0x77 board/wmt/libwmt.a(nor_flash_8bit.o)
 .debug_pubnames
                0x00005846       0x7b board/wmt/libwmt.a(nor_flash_16bit.o)
 .debug_pubnames
                0x000058c1       0x3c board/wmt/libwmt.a(wmt_clk.o)
 .debug_pubnames
                0x000058fd      0x222 board/wmt/libwmt.a(ehci-hcd.o)
 .debug_pubnames
                0x00005b1f      0x206 board/wmt/libwmt.a(usb_uhci.o)
 .debug_pubnames
                0x00005d25       0xa3 board/wmt/libwmt.a(wmt_i2c.o)
 .debug_pubnames
                0x00005dc8       0x83 board/wmt/libwmt.a(wmt_i2c_1.o)
 .debug_pubnames
                0x00005e4b       0x83 board/wmt/libwmt.a(wmt_i2c_2.o)
 .debug_pubnames
                0x00005ece       0x83 board/wmt/libwmt.a(wmt_i2c_3.o)
 .debug_pubnames
                0x00005f51       0x7c cpu/arm920t/libarm920t.a(cpu.o)
 .debug_pubnames
                0x00005fcd       0x96 cpu/arm920t/wmt/libwmt.a(serial.o)
 .debug_pubnames
                0x00006063       0x87 cpu/arm920t/wmt/libwmt.a(ether.o)
 .debug_pubnames
                0x000060ea       0x73 cpu/arm920t/wmt/libwmt.a(macif.o)
 .debug_pubnames
                0x0000615d       0xa7 cpu/arm920t/wmt/libwmt.a(adapter.o)
 .debug_pubnames
                0x00006204       0xe4 cpu/arm920t/wmt/libwmt.a(alloct.o)
 .debug_pubnames
                0x000062e8       0xfa cpu/arm920t/wmt/libwmt.a(mii.o)
 .debug_pubnames
                0x000063e2       0x50 cpu/arm920t/wmt/libwmt.a(mem.o)
 .debug_pubnames
                0x00006432       0xaa cpu/arm920t/wmt/libwmt.a(vpci.o)
 .debug_pubnames
                0x000064dc      0x197 cpu/arm920t/wmt/libwmt.a(dma.o)
 .debug_pubnames
                0x00006673      0x351 cpu/arm920t/wmt/libwmt.a(mmc.o)
 .debug_pubnames
                0x000069c4      0x2fc cpu/arm920t/wmt/libwmt.a(mac.o)
 .debug_pubnames
                0x00006cc0       0x2c lib_arm/libarm.a(armlinux.o)
 .debug_pubnames
                0x00006cec       0x22 lib_arm/libarm.a(cache.o)
 .debug_pubnames
                0x00006d0e       0xb3 fs/fat/libfat.a(fat.o)
 .debug_pubnames
                0x00006dc1       0x54 disk/libdisk.a(part.o)
 .debug_pubnames
                0x00006e15       0x52 disk/libdisk.a(part_dos.o)
 .debug_pubnames
                0x00006e67       0x26 cpu/arm920t/wmt/libwmt.a(zde.o)

.debug_info     0x00000000    0x5ca33
 *(.debug_info)
 .debug_info    0x00000000       0xa1 cpu/arm920t/start.o
 .debug_info    0x000000a1       0xb1 board/wmt/libwmt.a(lowlevel_init.o)
 .debug_info    0x00000152      0x260 cpu/arm920t/libarm920t.a(interrupts.o)
 .debug_info    0x000003b2      0xe0c cpu/arm920t/wmt/libwmt.a(interrupts.o)
 .debug_info    0x000011be      0x597 lib_arm/libarm.a(board.o)
 .debug_info    0x00001755     0x152f net/libnet.a(net.o)
 .debug_info    0x00002c84      0x4a4 net/libnet.a(tftp.o)
 .debug_info    0x00003128      0xae6 net/libnet.a(bootp.o)
 .debug_info    0x00003c0e      0x2b2 net/libnet.a(rarp.o)
 .debug_info    0x00003ec0      0x2ce net/libnet.a(eth.o)
 .debug_info    0x0000418e      0xc31 net/libnet.a(nfs.o)
 .debug_info    0x00004dbf      0x6ef common/libcommon.a(main.o)
 .debug_info    0x000054ae      0x3e7 common/libcommon.a(cmd_autoscript.o)
 .debug_info    0x00005895      0x3c5 common/libcommon.a(cmd_bdinfo.o)
 .debug_info    0x00005c5a      0x223 common/libcommon.a(cmd_boot.o)
 .debug_info    0x00005e7d      0xfb1 common/libcommon.a(cmd_bootm.o)
 .debug_info    0x00006e2e      0x3ee common/libcommon.a(cmd_console.o)
 .debug_info    0x0000721c      0x6b2 common/libcommon.a(cmd_fat.o)
 .debug_info    0x000078ce      0x8f0 common/libcommon.a(cmd_flash.o)
 .debug_info    0x000081be      0x9d5 common/libcommon.a(cmd_i2c.o)
 .debug_info    0x00008b93     0x1167 common/libcommon.a(cmd_ide.o)
 .debug_info    0x00009cfa      0x4d6 common/libcommon.a(cmd_itest.o)
 .debug_info    0x0000a1d0      0xd05 common/libcommon.a(cmd_load.o)
 .debug_info    0x0000aed5      0xcd9 common/libcommon.a(cmd_mem.o)
 .debug_info    0x0000bbae      0x881 common/libcommon.a(cmd_mii.o)
 .debug_info    0x0000c42f      0x1f4 common/libcommon.a(cmd_misc.o)
 .debug_info    0x0000c623      0xa51 common/libcommon.a(cmd_mmc.o)
 .debug_info    0x0000d074      0x479 common/libcommon.a(cmd_dma.o)
 .debug_info    0x0000d4ed     0x4544 common/libcommon.a(cmd_nand.o)
 .debug_info    0x00011a31      0x6dc common/libcommon.a(cmd_net.o)
 .debug_info    0x0001210d      0x92f common/libcommon.a(cmd_nvedit.o)
 .debug_info    0x00012a3c      0xf17 common/libcommon.a(cmd_usb.o)
 .debug_info    0x00013953      0xbf5 common/libcommon.a(command.o)
 .debug_info    0x00014548      0x96b common/libcommon.a(console.o)
 .debug_info    0x00014eb3      0x32a common/libcommon.a(devices.o)
 .debug_info    0x000151dd      0xc2b common/libcommon.a(dlmalloc.o)
 .debug_info    0x00015e08      0x49f common/libcommon.a(env_common.o)
 .debug_info    0x000162a7      0x4bf common/libcommon.a(env_flash.o)
 .debug_info    0x00016766      0x2d0 common/libcommon.a(exports.o)
 .debug_info    0x00016a36     0x164a common/libcommon.a(wmt_cmd_display.o)
 .debug_info    0x00018080     0x1a3e common/libcommon.a(minivgui.o)
 .debug_info    0x00019abe     0x1ef9 common/libcommon.a(uboot-vpp.o)
 .debug_info    0x0001b9b7     0x1150 common/libcommon.a(cmd_mbit.o)
 .debug_info    0x0001cb07     0x1483 common/libcommon.a(cmd_textout.o)
 .debug_info    0x0001df8a     0x10a4 common/libcommon.a(env_parse.o)
 .debug_info    0x0001f02e      0x368 common/libcommon.a(flash.o)
 .debug_info    0x0001f396     0x18e7 common/libcommon.a(hush.o)
 .debug_info    0x00020c7d      0x529 common/libcommon.a(lists.o)
 .debug_info    0x000211a6      0x630 common/libcommon.a(miiphyutil.o)
 .debug_info    0x000217d6      0x18f common/libcommon.a(s_record.o)
 .debug_info    0x00021965     0x185f common/libcommon.a(usb.o)
 .debug_info    0x000231c4     0x163a common/libcommon.a(usb_storage.o)
 .debug_info    0x000247fe     0x14fe common/libcommon.a(pwm.o)
 .debug_info    0x00025cfc     0x39ba common/libcommon.a(govrh.o)
 .debug_info    0x000296b6     0x2354 common/libcommon.a(vout.o)
 .debug_info    0x0002ba0a     0x1a5d common/libcommon.a(lcd.o)
 .debug_info    0x0002d467      0xfbf common/libcommon.a(lvds.o)
 .debug_info    0x0002e426     0x26ef common/libcommon.a(vpp.o)
 .debug_info    0x00030b15     0x1ea8 common/libcommon.a(hdmi.o)
 .debug_info    0x000329bd     0x2058 common/libcommon.a(parse-edid.o)
 .debug_info    0x00034a15     0x2836 common/libcommon.a(vout-wmt.o)
 .debug_info    0x0003724b     0x1248 common/libcommon.a(lcd-oem.o)
 .debug_info    0x00038493     0x1158 common/libcommon.a(lcd-AUO-A080SN01.o)
 .debug_info    0x000395eb     0x116b common/libcommon.a(lcd-INNOLUX-AT070TN83.o)
 .debug_info    0x0003a756     0x116b common/libcommon.a(lcd-CHILIN-LW700at9003.o)
 .debug_info    0x0003b8c1     0x116b common/libcommon.a(lcd-EKING-EK08009-70135.o)
 .debug_info    0x0003ca2c     0x116b common/libcommon.a(lcd-HANNSTAR-HSD101PFW2.o)
 .debug_info    0x0003db97     0x1800 common/libcommon.a(vt1632.o)
 .debug_info    0x0003f397      0xeae common/libcommon.a(sil902x.o)
 .debug_info    0x00040245     0x1c54 common/libcommon.a(cs8556.o)
 .debug_info    0x00041e99     0x10fe common/libcommon.a(wmt-ost.o)
 .debug_info    0x00042f97     0x1932 common/libcommon.a(vpp-osif.o)
 .debug_info    0x000448c9     0x169c common/libcommon.a(sw_i2c.o)
 .debug_info    0x00045f65      0x131 lib_generic/libgeneric.a(crc32.o)
 .debug_info    0x00046096       0x63 lib_generic/libgeneric.a(ctype.o)
 .debug_info    0x000460f9      0x136 lib_generic/libgeneric.a(display_options.o)
 .debug_info    0x0004622f      0x96d lib_generic/libgeneric.a(string.o)
 .debug_info    0x00046b9c      0x4d4 lib_generic/libgeneric.a(vsprintf.o)
 .debug_info    0x00047070     0x17af lib_generic/libgeneric.a(zlib.o)
 .debug_info    0x0004881f      0x26c board/wmt/libwmt.a(wmt.o)
 .debug_info    0x00048a8b      0x4d6 board/wmt/libwmt.a(flash.o)
 .debug_info    0x00048f61       0x87 board/wmt/libwmt.a(main.o)
 .debug_info    0x00048fe8      0x7cb board/wmt/libwmt.a(spi_flash.o)
 .debug_info    0x000497b3      0x21e board/wmt/libwmt.a(nand_flash.o)
 .debug_info    0x000499d1      0x878 board/wmt/libwmt.a(nor_flash_8bit.o)
 .debug_info    0x0004a249      0x8fb board/wmt/libwmt.a(nor_flash_16bit.o)
 .debug_info    0x0004ab44      0xb0d board/wmt/libwmt.a(wmt_clk.o)
 .debug_info    0x0004b651     0x1bc3 board/wmt/libwmt.a(ehci-hcd.o)
 .debug_info    0x0004d214     0x118b board/wmt/libwmt.a(usb_uhci.o)
 .debug_info    0x0004e39f      0xab2 board/wmt/libwmt.a(wmt_i2c.o)
 .debug_info    0x0004ee51      0xa56 board/wmt/libwmt.a(wmt_i2c_1.o)
 .debug_info    0x0004f8a7      0xa48 board/wmt/libwmt.a(wmt_i2c_2.o)
 .debug_info    0x000502ef      0xa48 board/wmt/libwmt.a(wmt_i2c_3.o)
 .debug_info    0x00050d37      0x2e0 cpu/arm920t/libarm920t.a(cpu.o)
 .debug_info    0x00051017      0x770 cpu/arm920t/wmt/libwmt.a(serial.o)
 .debug_info    0x00051787      0x2d1 cpu/arm920t/wmt/libwmt.a(ether.o)
 .debug_info    0x00051a58     0x1117 cpu/arm920t/wmt/libwmt.a(macif.o)
 .debug_info    0x00052b6f     0x130b cpu/arm920t/wmt/libwmt.a(adapter.o)
 .debug_info    0x00053e7a      0xedb cpu/arm920t/wmt/libwmt.a(alloct.o)
 .debug_info    0x00054d55      0x5e8 cpu/arm920t/wmt/libwmt.a(mii.o)
 .debug_info    0x0005533d      0x299 cpu/arm920t/wmt/libwmt.a(mem.o)
 .debug_info    0x000555d6      0x412 cpu/arm920t/wmt/libwmt.a(vpci.o)
 .debug_info    0x000559e8      0xcbb cpu/arm920t/wmt/libwmt.a(dma.o)
 .debug_info    0x000566a3     0x1c1d cpu/arm920t/wmt/libwmt.a(mmc.o)
 .debug_info    0x000582c0     0x1792 cpu/arm920t/wmt/libwmt.a(mac.o)
 .debug_info    0x00059a52      0xa97 lib_arm/libarm.a(armlinux.o)
 .debug_info    0x0005a4e9       0xa2 lib_arm/libarm.a(cache.o)
 .debug_info    0x0005a58b     0x18f3 fs/fat/libfat.a(fat.o)
 .debug_info    0x0005be7e      0x3de disk/libdisk.a(part.o)
 .debug_info    0x0005c25c      0x624 disk/libdisk.a(part_dos.o)
 .debug_info    0x0005c880      0x1b3 cpu/arm920t/wmt/libwmt.a(zde.o)

.debug_abbrev   0x00000000     0xe8e5
 *(.debug_abbrev)
 .debug_abbrev  0x00000000       0x14 cpu/arm920t/start.o
 .debug_abbrev  0x00000014       0x14 board/wmt/libwmt.a(lowlevel_init.o)
 .debug_abbrev  0x00000028       0xf5 cpu/arm920t/libarm920t.a(interrupts.o)
 .debug_abbrev  0x0000011d      0x1be cpu/arm920t/wmt/libwmt.a(interrupts.o)
 .debug_abbrev  0x000002db      0x247 lib_arm/libarm.a(board.o)
 .debug_abbrev  0x00000522      0x3d6 net/libnet.a(net.o)
 .debug_abbrev  0x000008f8      0x192 net/libnet.a(tftp.o)
 .debug_abbrev  0x00000a8a      0x35e net/libnet.a(bootp.o)
 .debug_abbrev  0x00000de8      0x11b net/libnet.a(rarp.o)
 .debug_abbrev  0x00000f03      0x16d net/libnet.a(eth.o)
 .debug_abbrev  0x00001070      0x2fe net/libnet.a(nfs.o)
 .debug_abbrev  0x0000136e      0x294 common/libcommon.a(main.o)
 .debug_abbrev  0x00001602      0x148 common/libcommon.a(cmd_autoscript.o)
 .debug_abbrev  0x0000174a      0x15b common/libcommon.a(cmd_bdinfo.o)
 .debug_abbrev  0x000018a5       0xe7 common/libcommon.a(cmd_boot.o)
 .debug_abbrev  0x0000198c      0x38d common/libcommon.a(cmd_bootm.o)
 .debug_abbrev  0x00001d19      0x132 common/libcommon.a(cmd_console.o)
 .debug_abbrev  0x00001e4b      0x16b common/libcommon.a(cmd_fat.o)
 .debug_abbrev  0x00001fb6      0x1d1 common/libcommon.a(cmd_flash.o)
 .debug_abbrev  0x00002187      0x227 common/libcommon.a(cmd_i2c.o)
 .debug_abbrev  0x000023ae      0x388 common/libcommon.a(cmd_ide.o)
 .debug_abbrev  0x00002736      0x1aa common/libcommon.a(cmd_itest.o)
 .debug_abbrev  0x000028e0      0x3c0 common/libcommon.a(cmd_load.o)
 .debug_abbrev  0x00002ca0      0x234 common/libcommon.a(cmd_mem.o)
 .debug_abbrev  0x00002ed4      0x257 common/libcommon.a(cmd_mii.o)
 .debug_abbrev  0x0000312b       0xe7 common/libcommon.a(cmd_misc.o)
 .debug_abbrev  0x00003212      0x206 common/libcommon.a(cmd_mmc.o)
 .debug_abbrev  0x00003418      0x18a common/libcommon.a(cmd_dma.o)
 .debug_abbrev  0x000035a2      0x397 common/libcommon.a(cmd_nand.o)
 .debug_abbrev  0x00003939      0x1c5 common/libcommon.a(cmd_net.o)
 .debug_abbrev  0x00003afe      0x249 common/libcommon.a(cmd_nvedit.o)
 .debug_abbrev  0x00003d47      0x238 common/libcommon.a(cmd_usb.o)
 .debug_abbrev  0x00003f7f      0x2bb common/libcommon.a(command.o)
 .debug_abbrev  0x0000423a      0x2d7 common/libcommon.a(console.o)
 .debug_abbrev  0x00004511      0x16b common/libcommon.a(devices.o)
 .debug_abbrev  0x0000467c      0x27f common/libcommon.a(dlmalloc.o)
 .debug_abbrev  0x000048fb      0x1c5 common/libcommon.a(env_common.o)
 .debug_abbrev  0x00004ac0      0x1db common/libcommon.a(env_flash.o)
 .debug_abbrev  0x00004c9b      0x12b common/libcommon.a(exports.o)
 .debug_abbrev  0x00004dc6      0x245 common/libcommon.a(wmt_cmd_display.o)
 .debug_abbrev  0x0000500b      0x383 common/libcommon.a(minivgui.o)
 .debug_abbrev  0x0000538e      0x285 common/libcommon.a(uboot-vpp.o)
 .debug_abbrev  0x00005613      0x1df common/libcommon.a(cmd_mbit.o)
 .debug_abbrev  0x000057f2      0x1f3 common/libcommon.a(cmd_textout.o)
 .debug_abbrev  0x000059e5      0x1ac common/libcommon.a(env_parse.o)
 .debug_abbrev  0x00005b91      0x17e common/libcommon.a(flash.o)
 .debug_abbrev  0x00005d0f      0x3c6 common/libcommon.a(hush.o)
 .debug_abbrev  0x000060d5      0x1f4 common/libcommon.a(lists.o)
 .debug_abbrev  0x000062c9      0x1bf common/libcommon.a(miiphyutil.o)
 .debug_abbrev  0x00006488       0xc3 common/libcommon.a(s_record.o)
 .debug_abbrev  0x0000654b      0x364 common/libcommon.a(usb.o)
 .debug_abbrev  0x000068af      0x376 common/libcommon.a(usb_storage.o)
 .debug_abbrev  0x00006c25      0x207 common/libcommon.a(pwm.o)
 .debug_abbrev  0x00006e2c      0x40f common/libcommon.a(govrh.o)
 .debug_abbrev  0x0000723b      0x33e common/libcommon.a(vout.o)
 .debug_abbrev  0x00007579      0x27b common/libcommon.a(lcd.o)
 .debug_abbrev  0x000077f4      0x1a7 common/libcommon.a(lvds.o)
 .debug_abbrev  0x0000799b      0x37c common/libcommon.a(vpp.o)
 .debug_abbrev  0x00007d17      0x379 common/libcommon.a(hdmi.o)
 .debug_abbrev  0x00008090      0x35b common/libcommon.a(parse-edid.o)
 .debug_abbrev  0x000083eb      0x3a9 common/libcommon.a(vout-wmt.o)
 .debug_abbrev  0x00008794      0x1d8 common/libcommon.a(lcd-oem.o)
 .debug_abbrev  0x0000896c      0x192 common/libcommon.a(lcd-AUO-A080SN01.o)
 .debug_abbrev  0x00008afe      0x192 common/libcommon.a(lcd-INNOLUX-AT070TN83.o)
 .debug_abbrev  0x00008c90      0x192 common/libcommon.a(lcd-CHILIN-LW700at9003.o)
 .debug_abbrev  0x00008e22      0x192 common/libcommon.a(lcd-EKING-EK08009-70135.o)
 .debug_abbrev  0x00008fb4      0x192 common/libcommon.a(lcd-HANNSTAR-HSD101PFW2.o)
 .debug_abbrev  0x00009146      0x240 common/libcommon.a(vt1632.o)
 .debug_abbrev  0x00009386      0x13f common/libcommon.a(sil902x.o)
 .debug_abbrev  0x000094c5      0x2d9 common/libcommon.a(cs8556.o)
 .debug_abbrev  0x0000979e      0x18c common/libcommon.a(wmt-ost.o)
 .debug_abbrev  0x0000992a      0x3fa common/libcommon.a(vpp-osif.o)
 .debug_abbrev  0x00009d24      0x2e0 common/libcommon.a(sw_i2c.o)
 .debug_abbrev  0x0000a004       0x90 lib_generic/libgeneric.a(crc32.o)
 .debug_abbrev  0x0000a094       0x53 lib_generic/libgeneric.a(ctype.o)
 .debug_abbrev  0x0000a0e7       0xc3 lib_generic/libgeneric.a(display_options.o)
 .debug_abbrev  0x0000a1aa      0x1d7 lib_generic/libgeneric.a(string.o)
 .debug_abbrev  0x0000a381      0x1b4 lib_generic/libgeneric.a(vsprintf.o)
 .debug_abbrev  0x0000a535      0x324 lib_generic/libgeneric.a(zlib.o)
 .debug_abbrev  0x0000a859      0x108 board/wmt/libwmt.a(wmt.o)
 .debug_abbrev  0x0000a961      0x1cc board/wmt/libwmt.a(flash.o)
 .debug_abbrev  0x0000ab2d       0x63 board/wmt/libwmt.a(main.o)
 .debug_abbrev  0x0000ab90      0x24b board/wmt/libwmt.a(spi_flash.o)
 .debug_abbrev  0x0000addb       0xe9 board/wmt/libwmt.a(nand_flash.o)
 .debug_abbrev  0x0000aec4      0x25e board/wmt/libwmt.a(nor_flash_8bit.o)
 .debug_abbrev  0x0000b122      0x284 board/wmt/libwmt.a(nor_flash_16bit.o)
 .debug_abbrev  0x0000b3a6      0x245 board/wmt/libwmt.a(wmt_clk.o)
 .debug_abbrev  0x0000b5eb      0x398 board/wmt/libwmt.a(ehci-hcd.o)
 .debug_abbrev  0x0000b983      0x327 board/wmt/libwmt.a(usb_uhci.o)
 .debug_abbrev  0x0000bcaa      0x310 board/wmt/libwmt.a(wmt_i2c.o)
 .debug_abbrev  0x0000bfba      0x2df board/wmt/libwmt.a(wmt_i2c_1.o)
 .debug_abbrev  0x0000c299      0x2df board/wmt/libwmt.a(wmt_i2c_2.o)
 .debug_abbrev  0x0000c578      0x2df board/wmt/libwmt.a(wmt_i2c_3.o)
 .debug_abbrev  0x0000c857      0x161 cpu/arm920t/libarm920t.a(cpu.o)
 .debug_abbrev  0x0000c9b8      0x17e cpu/arm920t/wmt/libwmt.a(serial.o)
 .debug_abbrev  0x0000cb36      0x13c cpu/arm920t/wmt/libwmt.a(ether.o)
 .debug_abbrev  0x0000cc72      0x26b cpu/arm920t/wmt/libwmt.a(macif.o)
 .debug_abbrev  0x0000cedd      0x282 cpu/arm920t/wmt/libwmt.a(adapter.o)
 .debug_abbrev  0x0000d15f      0x1bb cpu/arm920t/wmt/libwmt.a(alloct.o)
 .debug_abbrev  0x0000d31a      0x181 cpu/arm920t/wmt/libwmt.a(mii.o)
 .debug_abbrev  0x0000d49b      0x107 cpu/arm920t/wmt/libwmt.a(mem.o)
 .debug_abbrev  0x0000d5a2       0xcd cpu/arm920t/wmt/libwmt.a(vpci.o)
 .debug_abbrev  0x0000d66f      0x23c cpu/arm920t/wmt/libwmt.a(dma.o)
 .debug_abbrev  0x0000d8ab      0x383 cpu/arm920t/wmt/libwmt.a(mmc.o)
 .debug_abbrev  0x0000dc2e      0x1f2 cpu/arm920t/wmt/libwmt.a(mac.o)
 .debug_abbrev  0x0000de20      0x292 lib_arm/libarm.a(armlinux.o)
 .debug_abbrev  0x0000e0b2       0x4e lib_arm/libarm.a(cache.o)
 .debug_abbrev  0x0000e100      0x371 fs/fat/libfat.a(fat.o)
 .debug_abbrev  0x0000e471      0x156 disk/libdisk.a(part.o)
 .debug_abbrev  0x0000e5c7      0x1fa disk/libdisk.a(part_dos.o)
 .debug_abbrev  0x0000e7c1      0x124 cpu/arm920t/wmt/libwmt.a(zde.o)

.debug_line     0x00000000    0x10d9d
 *(.debug_line)
 .debug_line    0x00000000       0xdc cpu/arm920t/start.o
 .debug_line    0x000000dc       0x7b board/wmt/libwmt.a(lowlevel_init.o)
 .debug_line    0x00000157       0xd2 cpu/arm920t/libarm920t.a(interrupts.o)
 .debug_line    0x00000229      0x108 cpu/arm920t/wmt/libwmt.a(interrupts.o)
 .debug_line    0x00000331      0x234 lib_arm/libarm.a(board.o)
 .debug_line    0x00000565      0x4e4 net/libnet.a(net.o)
 .debug_line    0x00000a49      0x291 net/libnet.a(tftp.o)
 .debug_line    0x00000cda      0x32b net/libnet.a(bootp.o)
 .debug_line    0x00001005      0x16a net/libnet.a(rarp.o)
 .debug_line    0x0000116f      0x163 net/libnet.a(eth.o)
 .debug_line    0x000012d2      0x3be net/libnet.a(nfs.o)
 .debug_line    0x00001690      0x245 common/libcommon.a(main.o)
 .debug_line    0x000018d5      0x1e5 common/libcommon.a(cmd_autoscript.o)
 .debug_line    0x00001aba      0x162 common/libcommon.a(cmd_bdinfo.o)
 .debug_line    0x00001c1c       0xe8 common/libcommon.a(cmd_boot.o)
 .debug_line    0x00001d04      0x39a common/libcommon.a(cmd_bootm.o)
 .debug_line    0x0000209e       0xb9 common/libcommon.a(cmd_console.o)
 .debug_line    0x00002157      0x1a5 common/libcommon.a(cmd_fat.o)
 .debug_line    0x000022fc      0x3aa common/libcommon.a(cmd_flash.o)
 .debug_line    0x000026a6      0x33b common/libcommon.a(cmd_i2c.o)
 .debug_line    0x000029e1      0x42c common/libcommon.a(cmd_ide.o)
 .debug_line    0x00002e0d      0x13e common/libcommon.a(cmd_itest.o)
 .debug_line    0x00002f4b      0x38c common/libcommon.a(cmd_load.o)
 .debug_line    0x000032d7      0x344 common/libcommon.a(cmd_mem.o)
 .debug_line    0x0000361b      0x24f common/libcommon.a(cmd_mii.o)
 .debug_line    0x0000386a       0xe1 common/libcommon.a(cmd_misc.o)
 .debug_line    0x0000394b      0x241 common/libcommon.a(cmd_mmc.o)
 .debug_line    0x00003b8c      0x11b common/libcommon.a(cmd_dma.o)
 .debug_line    0x00003ca7     0x16a0 common/libcommon.a(cmd_nand.o)
 .debug_line    0x00005347      0x170 common/libcommon.a(cmd_net.o)
 .debug_line    0x000054b7      0x3ea common/libcommon.a(cmd_nvedit.o)
 .debug_line    0x000058a1      0x42b common/libcommon.a(cmd_usb.o)
 .debug_line    0x00005ccc      0x304 common/libcommon.a(command.o)
 .debug_line    0x00005fd0      0x2c4 common/libcommon.a(console.o)
 .debug_line    0x00006294       0xbd common/libcommon.a(devices.o)
 .debug_line    0x00006351      0x4e4 common/libcommon.a(dlmalloc.o)
 .debug_line    0x00006835      0x1af common/libcommon.a(env_common.o)
 .debug_line    0x000069e4      0x1d8 common/libcommon.a(env_flash.o)
 .debug_line    0x00006bbc      0x13b common/libcommon.a(exports.o)
 .debug_line    0x00006cf7      0x196 common/libcommon.a(wmt_cmd_display.o)
 .debug_line    0x00006e8d      0x37c common/libcommon.a(minivgui.o)
 .debug_line    0x00007209      0x1cd common/libcommon.a(uboot-vpp.o)
 .debug_line    0x000073d6      0x134 common/libcommon.a(cmd_mbit.o)
 .debug_line    0x0000750a      0x1bc common/libcommon.a(cmd_textout.o)
 .debug_line    0x000076c6      0x11f common/libcommon.a(env_parse.o)
 .debug_line    0x000077e5      0x1a4 common/libcommon.a(flash.o)
 .debug_line    0x00007989      0x6b9 common/libcommon.a(hush.o)
 .debug_line    0x00008042      0x138 common/libcommon.a(lists.o)
 .debug_line    0x0000817a      0x19c common/libcommon.a(miiphyutil.o)
 .debug_line    0x00008316      0x11e common/libcommon.a(s_record.o)
 .debug_line    0x00008434      0x503 common/libcommon.a(usb.o)
 .debug_line    0x00008937      0x541 common/libcommon.a(usb_storage.o)
 .debug_line    0x00008e78      0x161 common/libcommon.a(pwm.o)
 .debug_line    0x00008fd9      0x4c2 common/libcommon.a(govrh.o)
 .debug_line    0x0000949b      0x32f common/libcommon.a(vout.o)
 .debug_line    0x000097ca      0x131 common/libcommon.a(lcd.o)
 .debug_line    0x000098fb       0xbc common/libcommon.a(lvds.o)
 .debug_line    0x000099b7      0x47f common/libcommon.a(vpp.o)
 .debug_line    0x00009e36      0x4b2 common/libcommon.a(hdmi.o)
 .debug_line    0x0000a2e8      0x398 common/libcommon.a(parse-edid.o)
 .debug_line    0x0000a680      0x41c common/libcommon.a(vout-wmt.o)
 .debug_line    0x0000aa9c       0xc7 common/libcommon.a(lcd-oem.o)
 .debug_line    0x0000ab63       0xbe common/libcommon.a(lcd-AUO-A080SN01.o)
 .debug_line    0x0000ac21       0xc3 common/libcommon.a(lcd-INNOLUX-AT070TN83.o)
 .debug_line    0x0000ace4       0xcb common/libcommon.a(lcd-CHILIN-LW700at9003.o)
 .debug_line    0x0000adaf       0xcb common/libcommon.a(lcd-EKING-EK08009-70135.o)
 .debug_line    0x0000ae7a       0xcb common/libcommon.a(lcd-HANNSTAR-HSD101PFW2.o)
 .debug_line    0x0000af45      0x113 common/libcommon.a(vt1632.o)
 .debug_line    0x0000b058       0x96 common/libcommon.a(sil902x.o)
 .debug_line    0x0000b0ee      0x279 common/libcommon.a(cs8556.o)
 .debug_line    0x0000b367       0xdb common/libcommon.a(wmt-ost.o)
 .debug_line    0x0000b442      0x1f5 common/libcommon.a(vpp-osif.o)
 .debug_line    0x0000b637      0x1ad common/libcommon.a(sw_i2c.o)
 .debug_line    0x0000b7e4       0xf5 lib_generic/libgeneric.a(crc32.o)
 .debug_line    0x0000b8d9       0x73 lib_generic/libgeneric.a(ctype.o)
 .debug_line    0x0000b94c       0xab lib_generic/libgeneric.a(display_options.o)
 .debug_line    0x0000b9f7      0x2ca lib_generic/libgeneric.a(string.o)
 .debug_line    0x0000bcc1      0x2f9 lib_generic/libgeneric.a(vsprintf.o)
 .debug_line    0x0000bfba      0x795 lib_generic/libgeneric.a(zlib.o)
 .debug_line    0x0000c74f       0xe7 board/wmt/libwmt.a(wmt.o)
 .debug_line    0x0000c836      0x1d0 board/wmt/libwmt.a(flash.o)
 .debug_line    0x0000ca06       0x4f board/wmt/libwmt.a(main.o)
 .debug_line    0x0000ca55      0x273 board/wmt/libwmt.a(spi_flash.o)
 .debug_line    0x0000ccc8       0xe9 board/wmt/libwmt.a(nand_flash.o)
 .debug_line    0x0000cdb1      0x32c board/wmt/libwmt.a(nor_flash_8bit.o)
 .debug_line    0x0000d0dd      0x445 board/wmt/libwmt.a(nor_flash_16bit.o)
 .debug_line    0x0000d522      0x2ad board/wmt/libwmt.a(wmt_clk.o)
 .debug_line    0x0000d7cf      0x492 board/wmt/libwmt.a(ehci-hcd.o)
 .debug_line    0x0000dc61      0x49b board/wmt/libwmt.a(usb_uhci.o)
 .debug_line    0x0000e0fc      0x24c board/wmt/libwmt.a(wmt_i2c.o)
 .debug_line    0x0000e348      0x23d board/wmt/libwmt.a(wmt_i2c_1.o)
 .debug_line    0x0000e585      0x229 board/wmt/libwmt.a(wmt_i2c_2.o)
 .debug_line    0x0000e7ae      0x228 board/wmt/libwmt.a(wmt_i2c_3.o)
 .debug_line    0x0000e9d6       0xfd cpu/arm920t/libarm920t.a(cpu.o)
 .debug_line    0x0000ead3      0x150 cpu/arm920t/wmt/libwmt.a(serial.o)
 .debug_line    0x0000ec23       0xdf cpu/arm920t/wmt/libwmt.a(ether.o)
 .debug_line    0x0000ed02      0x1dc cpu/arm920t/wmt/libwmt.a(macif.o)
 .debug_line    0x0000eede      0x191 cpu/arm920t/wmt/libwmt.a(adapter.o)
 .debug_line    0x0000f06f      0x14f cpu/arm920t/wmt/libwmt.a(alloct.o)
 .debug_line    0x0000f1be       0xe7 cpu/arm920t/wmt/libwmt.a(mii.o)
 .debug_line    0x0000f2a5      0x114 cpu/arm920t/wmt/libwmt.a(mem.o)
 .debug_line    0x0000f3b9       0x7b cpu/arm920t/wmt/libwmt.a(vpci.o)
 .debug_line    0x0000f434      0x321 cpu/arm920t/wmt/libwmt.a(dma.o)
 .debug_line    0x0000f755      0x7ee cpu/arm920t/wmt/libwmt.a(mmc.o)
 .debug_line    0x0000ff43      0x1e4 cpu/arm920t/wmt/libwmt.a(mac.o)
 .debug_line    0x00010127      0x261 lib_arm/libarm.a(armlinux.o)
 .debug_line    0x00010388       0x38 lib_arm/libarm.a(cache.o)
 .debug_line    0x000103c0      0x685 fs/fat/libfat.a(fat.o)
 .debug_line    0x00010a45      0x145 disk/libdisk.a(part.o)
 .debug_line    0x00010b8a      0x1c2 disk/libdisk.a(part_dos.o)
 .debug_line    0x00010d4c       0x51 cpu/arm920t/wmt/libwmt.a(zde.o)

.debug_frame    0x00000000     0x8468
 *(.debug_frame)
 .debug_frame   0x00000000      0x110 cpu/arm920t/libarm920t.a(interrupts.o)
 .debug_frame   0x00000110      0x10c cpu/arm920t/wmt/libwmt.a(interrupts.o)
 .debug_frame   0x0000021c       0xb8 lib_arm/libarm.a(board.o)
 .debug_frame   0x000002d4      0x33c net/libnet.a(net.o)
 .debug_frame   0x00000610       0x98 net/libnet.a(tftp.o)
 .debug_frame   0x000006a8      0x178 net/libnet.a(bootp.o)
 .debug_frame   0x00000820       0x60 net/libnet.a(rarp.o)
 .debug_frame   0x00000880       0x60 net/libnet.a(eth.o)
 .debug_frame   0x000008e0      0x284 net/libnet.a(nfs.o)
 .debug_frame   0x00000b64       0xbc common/libcommon.a(main.o)
 .debug_frame   0x00000c20       0x58 common/libcommon.a(cmd_autoscript.o)
 .debug_frame   0x00000c78       0x3c common/libcommon.a(cmd_bdinfo.o)
 .debug_frame   0x00000cb4       0x2c common/libcommon.a(cmd_boot.o)
 .debug_frame   0x00000ce0      0x12c common/libcommon.a(cmd_bootm.o)
 .debug_frame   0x00000e0c       0x30 common/libcommon.a(cmd_console.o)
 .debug_frame   0x00000e3c       0xc0 common/libcommon.a(cmd_fat.o)
 .debug_frame   0x00000efc      0x124 common/libcommon.a(cmd_flash.o)
 .debug_frame   0x00001020      0x164 common/libcommon.a(cmd_i2c.o)
 .debug_frame   0x00001184      0x15c common/libcommon.a(cmd_ide.o)
 .debug_frame   0x000012e0       0x78 common/libcommon.a(cmd_itest.o)
 .debug_frame   0x00001358      0x198 common/libcommon.a(cmd_load.o)
 .debug_frame   0x000014f0      0x19c common/libcommon.a(cmd_mem.o)
 .debug_frame   0x0000168c       0x80 common/libcommon.a(cmd_mii.o)
 .debug_frame   0x0000170c       0x30 common/libcommon.a(cmd_misc.o)
 .debug_frame   0x0000173c      0x104 common/libcommon.a(cmd_mmc.o)
 .debug_frame   0x00001840       0x4c common/libcommon.a(cmd_dma.o)
 .debug_frame   0x0000188c      0xa54 common/libcommon.a(cmd_nand.o)
 .debug_frame   0x000022e0       0xa0 common/libcommon.a(cmd_net.o)
 .debug_frame   0x00002380      0x114 common/libcommon.a(cmd_nvedit.o)
 .debug_frame   0x00002494      0x184 common/libcommon.a(cmd_usb.o)
 .debug_frame   0x00002618      0x13c common/libcommon.a(command.o)
 .debug_frame   0x00002754      0x22c common/libcommon.a(console.o)
 .debug_frame   0x00002980       0x58 common/libcommon.a(devices.o)
 .debug_frame   0x000029d8      0x130 common/libcommon.a(dlmalloc.o)
 .debug_frame   0x00002b08       0xa0 common/libcommon.a(env_common.o)
 .debug_frame   0x00002ba8       0x84 common/libcommon.a(env_flash.o)
 .debug_frame   0x00002c2c       0x48 common/libcommon.a(exports.o)
 .debug_frame   0x00002c74       0x98 common/libcommon.a(wmt_cmd_display.o)
 .debug_frame   0x00002d0c      0x12c common/libcommon.a(minivgui.o)
 .debug_frame   0x00002e38       0x64 common/libcommon.a(uboot-vpp.o)
 .debug_frame   0x00002e9c       0x4c common/libcommon.a(cmd_mbit.o)
 .debug_frame   0x00002ee8       0x4c common/libcommon.a(cmd_textout.o)
 .debug_frame   0x00002f34       0x50 common/libcommon.a(env_parse.o)
 .debug_frame   0x00002f84       0x80 common/libcommon.a(flash.o)
 .debug_frame   0x00003004      0x334 common/libcommon.a(hush.o)
 .debug_frame   0x00003338      0x138 common/libcommon.a(lists.o)
 .debug_frame   0x00003470      0x150 common/libcommon.a(miiphyutil.o)
 .debug_frame   0x000035c0       0x64 common/libcommon.a(s_record.o)
 .debug_frame   0x00003624      0x4e0 common/libcommon.a(usb.o)
 .debug_frame   0x00003b04      0x23c common/libcommon.a(usb_storage.o)
 .debug_frame   0x00003d40      0x108 common/libcommon.a(pwm.o)
 .debug_frame   0x00003e48      0x624 common/libcommon.a(govrh.o)
 .debug_frame   0x0000446c      0x2d8 common/libcommon.a(vout.o)
 .debug_frame   0x00004744       0xe8 common/libcommon.a(lcd.o)
 .debug_frame   0x0000482c       0xc8 common/libcommon.a(lvds.o)
 .debug_frame   0x000048f4      0x43c common/libcommon.a(vpp.o)
 .debug_frame   0x00004d30      0x430 common/libcommon.a(hdmi.o)
 .debug_frame   0x00005160       0xb8 common/libcommon.a(parse-edid.o)
 .debug_frame   0x00005218      0x338 common/libcommon.a(vout-wmt.o)
 .debug_frame   0x00005550       0x60 common/libcommon.a(lcd-oem.o)
 .debug_frame   0x000055b0       0x40 common/libcommon.a(lcd-AUO-A080SN01.o)
 .debug_frame   0x000055f0       0x50 common/libcommon.a(lcd-INNOLUX-AT070TN83.o)
 .debug_frame   0x00005640       0x50 common/libcommon.a(lcd-CHILIN-LW700at9003.o)
 .debug_frame   0x00005690       0x50 common/libcommon.a(lcd-EKING-EK08009-70135.o)
 .debug_frame   0x000056e0       0x50 common/libcommon.a(lcd-HANNSTAR-HSD101PFW2.o)
 .debug_frame   0x00005730       0xd8 common/libcommon.a(vt1632.o)
 .debug_frame   0x00005808       0x20 common/libcommon.a(sil902x.o)
 .debug_frame   0x00005828      0x18c common/libcommon.a(cs8556.o)
 .debug_frame   0x000059b4       0x78 common/libcommon.a(wmt-ost.o)
 .debug_frame   0x00005a2c      0x22c common/libcommon.a(vpp-osif.o)
 .debug_frame   0x00005c58      0x1f8 common/libcommon.a(sw_i2c.o)
 .debug_frame   0x00005e50       0x2c lib_generic/libgeneric.a(crc32.o)
 .debug_frame   0x00005e7c       0x48 lib_generic/libgeneric.a(display_options.o)
 .debug_frame   0x00005ec4      0x22c lib_generic/libgeneric.a(string.o)
 .debug_frame   0x000060f0      0x12c lib_generic/libgeneric.a(vsprintf.o)
 .debug_frame   0x0000621c      0x214 lib_generic/libgeneric.a(zlib.o)
 .debug_frame   0x00006430       0x58 board/wmt/libwmt.a(wmt.o)
 .debug_frame   0x00006488       0x98 board/wmt/libwmt.a(flash.o)
 .debug_frame   0x00006520       0x20 board/wmt/libwmt.a(main.o)
 .debug_frame   0x00006540       0xa8 board/wmt/libwmt.a(spi_flash.o)
 .debug_frame   0x000065e8       0x50 board/wmt/libwmt.a(nand_flash.o)
 .debug_frame   0x00006638       0xb4 board/wmt/libwmt.a(nor_flash_8bit.o)
 .debug_frame   0x000066ec       0xcc board/wmt/libwmt.a(nor_flash_16bit.o)
 .debug_frame   0x000067b8       0x98 board/wmt/libwmt.a(wmt_clk.o)
 .debug_frame   0x00006850      0x254 board/wmt/libwmt.a(ehci-hcd.o)
 .debug_frame   0x00006aa4      0x22c board/wmt/libwmt.a(usb_uhci.o)
 .debug_frame   0x00006cd0      0x114 board/wmt/libwmt.a(wmt_i2c.o)
 .debug_frame   0x00006de4       0xfc board/wmt/libwmt.a(wmt_i2c_1.o)
 .debug_frame   0x00006ee0       0xfc board/wmt/libwmt.a(wmt_i2c_2.o)
 .debug_frame   0x00006fdc       0xfc board/wmt/libwmt.a(wmt_i2c_3.o)
 .debug_frame   0x000070d8       0xcc cpu/arm920t/libarm920t.a(cpu.o)
 .debug_frame   0x000071a4       0x80 cpu/arm920t/wmt/libwmt.a(serial.o)
 .debug_frame   0x00007224       0x90 cpu/arm920t/wmt/libwmt.a(ether.o)
 .debug_frame   0x000072b4       0xb0 cpu/arm920t/wmt/libwmt.a(macif.o)
 .debug_frame   0x00007364       0xb8 cpu/arm920t/wmt/libwmt.a(adapter.o)
 .debug_frame   0x0000741c       0xe8 cpu/arm920t/wmt/libwmt.a(alloct.o)
 .debug_frame   0x00007504      0x124 cpu/arm920t/wmt/libwmt.a(mii.o)
 .debug_frame   0x00007628       0x64 cpu/arm920t/wmt/libwmt.a(mem.o)
 .debug_frame   0x0000768c       0xc8 cpu/arm920t/wmt/libwmt.a(vpci.o)
 .debug_frame   0x00007754      0x224 cpu/arm920t/wmt/libwmt.a(dma.o)
 .debug_frame   0x00007978      0x350 cpu/arm920t/wmt/libwmt.a(mmc.o)
 .debug_frame   0x00007cc8      0x284 cpu/arm920t/wmt/libwmt.a(mac.o)
 .debug_frame   0x00007f4c       0x98 lib_arm/libarm.a(armlinux.o)
 .debug_frame   0x00007fe4       0x20 lib_arm/libarm.a(cache.o)
 .debug_frame   0x00008004      0x2a4 fs/fat/libfat.a(fat.o)
 .debug_frame   0x000082a8       0x80 disk/libdisk.a(part.o)
 .debug_frame   0x00008328       0xd0 disk/libdisk.a(part_dos.o)
 .debug_frame   0x000083f8       0x30 cpu/arm920t/wmt/libwmt.a(zde.o)
 .debug_frame   0x00008428       0x20 /home/pd2/toolchain/arm_201103_gcc4.5.2/bin/../lib/gcc/arm-none-linux-gnueabi/4.5.2/libgcc.a(_udivsi3.o)
 .debug_frame   0x00008448       0x20 /home/pd2/toolchain/arm_201103_gcc4.5.2/bin/../lib/gcc/arm-none-linux-gnueabi/4.5.2/libgcc.a(_divsi3.o)

.debug_str      0x00000000     0xf723
 *(.debug_str)
 .debug_str     0x00000000      0x166 cpu/arm920t/libarm920t.a(interrupts.o)
                                0x1aa (size before relaxing)
 .debug_str     0x00000166      0xa3a cpu/arm920t/wmt/libwmt.a(interrupts.o)
                                0xb22 (size before relaxing)
 .debug_str     0x00000ba0      0x22c lib_arm/libarm.a(board.o)
                                0x2f3 (size before relaxing)
 .debug_str     0x00000dcc      0x5ea net/libnet.a(net.o)
                                0x7df (size before relaxing)
 .debug_str     0x000013b6       0xec net/libnet.a(tftp.o)
                                0x286 (size before relaxing)
 .debug_str     0x000014a2      0x252 net/libnet.a(bootp.o)
                                0x49f (size before relaxing)
 .debug_str     0x000016f4       0x4c net/libnet.a(rarp.o)
                                0x1a8 (size before relaxing)
 .debug_str     0x00001740       0x7b net/libnet.a(eth.o)
                                0x1db (size before relaxing)
 .debug_str     0x000017bb      0x25d net/libnet.a(nfs.o)
                                0x46b (size before relaxing)
 .debug_str     0x00001a18      0x169 common/libcommon.a(main.o)
                                0x253 (size before relaxing)
 .debug_str     0x00001b81       0xc2 common/libcommon.a(cmd_autoscript.o)
                                0x233 (size before relaxing)
 .debug_str     0x00001c43       0x35 common/libcommon.a(cmd_bdinfo.o)
                                0x22c (size before relaxing)
 .debug_str     0x00001c78       0x34 common/libcommon.a(cmd_boot.o)
                                0x168 (size before relaxing)
 .debug_str     0x00001cac      0x225 common/libcommon.a(cmd_bootm.o)
                                0x530 (size before relaxing)
 .debug_str     0x00001ed1       0xbc common/libcommon.a(cmd_console.o)
                                0x207 (size before relaxing)
 .debug_str     0x00001f8d      0x13a common/libcommon.a(cmd_fat.o)
                                0x2a2 (size before relaxing)
 .debug_str     0x000020c7      0x130 common/libcommon.a(cmd_flash.o)
                                0x2e5 (size before relaxing)
 .debug_str     0x000021f7      0x1b6 common/libcommon.a(cmd_i2c.o)
                                0x33b (size before relaxing)
 .debug_str     0x000023ad      0x418 common/libcommon.a(cmd_ide.o)
                                0x6fe (size before relaxing)
 .debug_str     0x000027c5       0x90 common/libcommon.a(cmd_itest.o)
                                0x1c3 (size before relaxing)
 .debug_str     0x00002855      0x38b common/libcommon.a(cmd_load.o)
                                0x5f5 (size before relaxing)
 .debug_str     0x00002be0      0x1c4 common/libcommon.a(cmd_mem.o)
                                0x3ae (size before relaxing)
 .debug_str     0x00002da4      0x1a3 common/libcommon.a(cmd_mii.o)
                                0x352 (size before relaxing)
 .debug_str     0x00002f47       0x27 common/libcommon.a(cmd_misc.o)
                                0x15c (size before relaxing)
 .debug_str     0x00002f6e      0x200 common/libcommon.a(cmd_mmc.o)
                                0x43b (size before relaxing)
 .debug_str     0x0000316e      0x298 common/libcommon.a(cmd_dma.o)
                                0x402 (size before relaxing)
 .debug_str     0x00003406     0x105e common/libcommon.a(cmd_nand.o)
                               0x1455 (size before relaxing)
 .debug_str     0x00004464       0xd2 common/libcommon.a(cmd_net.o)
                                0x2dc (size before relaxing)
 .debug_str     0x00004536       0xe3 common/libcommon.a(cmd_nvedit.o)
                                0x326 (size before relaxing)
 .debug_str     0x00004619      0x471 common/libcommon.a(cmd_usb.o)
                                0x793 (size before relaxing)
 .debug_str     0x00004a8a      0x1dc common/libcommon.a(command.o)
                                0x349 (size before relaxing)
 .debug_str     0x00004c66       0xed common/libcommon.a(console.o)
                                0x450 (size before relaxing)
 .debug_str     0x00004d53       0x48 common/libcommon.a(devices.o)
                                0x1e7 (size before relaxing)
 .debug_str     0x00004d9b      0x29d common/libcommon.a(dlmalloc.o)
                                0x4b0 (size before relaxing)
 .debug_str     0x00005038       0x9d common/libcommon.a(env_common.o)
                                0x26c (size before relaxing)
 .debug_str     0x000050d5       0x98 common/libcommon.a(env_flash.o)
                                0x2ab (size before relaxing)
 .debug_str     0x0000516d       0x19 common/libcommon.a(exports.o)
                                0x27d (size before relaxing)
 .debug_str     0x00005186     0x1242 common/libcommon.a(wmt_cmd_display.o)
                               0x14c9 (size before relaxing)
 .debug_str     0x000063c8      0x299 common/libcommon.a(minivgui.o)
                               0x1499 (size before relaxing)
 .debug_str     0x00006661      0x5ea common/libcommon.a(uboot-vpp.o)
                               0x1a63 (size before relaxing)
 .debug_str     0x00006c4b       0x4d common/libcommon.a(cmd_mbit.o)
                               0x11e2 (size before relaxing)
 .debug_str     0x00006c98       0x6f common/libcommon.a(cmd_textout.o)
                               0x135c (size before relaxing)
 .debug_str     0x00006d07       0x3e common/libcommon.a(env_parse.o)
                                0xefa (size before relaxing)
 .debug_str     0x00006d45       0x55 common/libcommon.a(flash.o)
                                0x1a6 (size before relaxing)
 .debug_str     0x00006d9a      0x4b9 common/libcommon.a(hush.o)
                                0x79a (size before relaxing)
 .debug_str     0x00007253      0x1d5 common/libcommon.a(lists.o)
                                0x322 (size before relaxing)
 .debug_str     0x00007428      0x10e common/libcommon.a(miiphyutil.o)
                                0x24b (size before relaxing)
 .debug_str     0x00007536       0x3a common/libcommon.a(s_record.o)
                                0x124 (size before relaxing)
 .debug_str     0x00007570      0x551 common/libcommon.a(usb.o)
                                0xa63 (size before relaxing)
 .debug_str     0x00007ac1      0x41c common/libcommon.a(usb_storage.o)
                                0x9cb (size before relaxing)
 .debug_str     0x00007edd       0xe2 common/libcommon.a(pwm.o)
                               0x127f (size before relaxing)
 .debug_str     0x00007fbf      0xff5 common/libcommon.a(govrh.o)
                               0x2216 (size before relaxing)
 .debug_str     0x00008fb4      0x352 common/libcommon.a(vout.o)
                               0x17ea (size before relaxing)
 .debug_str     0x00009306      0x1f3 common/libcommon.a(lcd.o)
                               0x161d (size before relaxing)
 .debug_str     0x000094f9       0xa7 common/libcommon.a(lvds.o)
                                0xef1 (size before relaxing)
 .debug_str     0x000095a0      0x527 common/libcommon.a(vpp.o)
                               0x1cd4 (size before relaxing)
 .debug_str     0x00009ac7      0x5c3 common/libcommon.a(hdmi.o)
                               0x1af2 (size before relaxing)
 .debug_str     0x0000a08a      0x23b common/libcommon.a(parse-edid.o)
                               0x16a7 (size before relaxing)
 .debug_str     0x0000a2c5      0x39e common/libcommon.a(vout-wmt.o)
                               0x1c35 (size before relaxing)
 .debug_str     0x0000a663       0xc1 common/libcommon.a(lcd-oem.o)
                               0x12e8 (size before relaxing)
 .debug_str     0x0000a724       0x76 common/libcommon.a(lcd-AUO-A080SN01.o)
                               0x1294 (size before relaxing)
 .debug_str     0x0000a79a       0x98 common/libcommon.a(lcd-INNOLUX-AT070TN83.o)
                               0x12b6 (size before relaxing)
 .debug_str     0x0000a832       0xa3 common/libcommon.a(lcd-CHILIN-LW700at9003.o)
                               0x12c1 (size before relaxing)
 .debug_str     0x0000a8d5       0x90 common/libcommon.a(lcd-EKING-EK08009-70135.o)
                               0x12ae (size before relaxing)
 .debug_str     0x0000a965       0x9f common/libcommon.a(lcd-HANNSTAR-HSD101PFW2.o)
                               0x12bd (size before relaxing)
 .debug_str     0x0000aa04       0xd1 common/libcommon.a(vt1632.o)
                               0x151a (size before relaxing)
 .debug_str     0x0000aad5       0x32 common/libcommon.a(sil902x.o)
                                0xe66 (size before relaxing)
 .debug_str     0x0000ab07      0x2b4 common/libcommon.a(cs8556.o)
                               0x1754 (size before relaxing)
 .debug_str     0x0000adbb       0xa2 common/libcommon.a(wmt-ost.o)
                               0x11dd (size before relaxing)
 .debug_str     0x0000ae5d      0x1d1 common/libcommon.a(vpp-osif.o)
                               0x1374 (size before relaxing)
 .debug_str     0x0000b02e      0x1bb common/libcommon.a(sw_i2c.o)
                               0x13a3 (size before relaxing)
 .debug_str     0x0000b1e9       0x57 lib_generic/libgeneric.a(crc32.o)
                                0x10e (size before relaxing)
 .debug_str     0x0000b240        0x8 lib_generic/libgeneric.a(ctype.o)
                                 0x74 (size before relaxing)
 .debug_str     0x0000b248       0x2d lib_generic/libgeneric.a(display_options.o)
                                0x11a (size before relaxing)
 .debug_str     0x0000b275       0xe3 lib_generic/libgeneric.a(string.o)
                                0x1f5 (size before relaxing)
 .debug_str     0x0000b358       0x82 lib_generic/libgeneric.a(vsprintf.o)
                                0x1cf (size before relaxing)
 .debug_str     0x0000b3da      0x3a6 lib_generic/libgeneric.a(zlib.o)
                                0x5c2 (size before relaxing)
 .debug_str     0x0000b780       0x74 board/wmt/libwmt.a(wmt.o)
                                0x1dd (size before relaxing)
 .debug_str     0x0000b7f4      0x12a board/wmt/libwmt.a(flash.o)
                                0x2db (size before relaxing)
 .debug_str     0x0000b91e        0x9 board/wmt/libwmt.a(main.o)
                                 0xa5 (size before relaxing)
 .debug_str     0x0000b927      0x26e board/wmt/libwmt.a(spi_flash.o)
                                0x3cf (size before relaxing)
 .debug_str     0x0000bb95       0x61 board/wmt/libwmt.a(nand_flash.o)
                                0x19a (size before relaxing)
 .debug_str     0x0000bbf6      0x14a board/wmt/libwmt.a(nor_flash_8bit.o)
                                0x2eb (size before relaxing)
 .debug_str     0x0000bd40       0x78 board/wmt/libwmt.a(nor_flash_16bit.o)
                                0x30d (size before relaxing)
 .debug_str     0x0000bdb8      0x11b board/wmt/libwmt.a(wmt_clk.o)
                                0x4f8 (size before relaxing)
 .debug_str     0x0000bed3      0x87f board/wmt/libwmt.a(ehci-hcd.o)
                                0xece (size before relaxing)
 .debug_str     0x0000c752      0x2ad board/wmt/libwmt.a(usb_uhci.o)
                                0x7a5 (size before relaxing)
 .debug_str     0x0000c9ff      0x1c5 board/wmt/libwmt.a(wmt_i2c.o)
                                0x617 (size before relaxing)
 .debug_str     0x0000cbc4       0x4c board/wmt/libwmt.a(wmt_i2c_1.o)
                                0x607 (size before relaxing)
 .debug_str     0x0000cc10       0x57 board/wmt/libwmt.a(wmt_i2c_2.o)
                                0x607 (size before relaxing)
 .debug_str     0x0000cc67       0x57 board/wmt/libwmt.a(wmt_i2c_3.o)
                                0x607 (size before relaxing)
 .debug_str     0x0000ccbe       0x71 cpu/arm920t/libarm920t.a(cpu.o)
                                0x1ae (size before relaxing)
 .debug_str     0x0000cd2f      0x2d3 cpu/arm920t/wmt/libwmt.a(serial.o)
                                0x478 (size before relaxing)
 .debug_str     0x0000d002       0x68 cpu/arm920t/wmt/libwmt.a(ether.o)
                                0x1dc (size before relaxing)
 .debug_str     0x0000d06a      0xa27 cpu/arm920t/wmt/libwmt.a(macif.o)
                                0xc09 (size before relaxing)
 .debug_str     0x0000da91      0x152 cpu/arm920t/wmt/libwmt.a(adapter.o)
                                0xc13 (size before relaxing)
 .debug_str     0x0000dbe3       0xc9 cpu/arm920t/wmt/libwmt.a(alloct.o)
                                0xbc1 (size before relaxing)
 .debug_str     0x0000dcac       0xf7 cpu/arm920t/wmt/libwmt.a(mii.o)
                                0x23a (size before relaxing)
 .debug_str     0x0000dda3       0x6e cpu/arm920t/wmt/libwmt.a(mem.o)
                                0x220 (size before relaxing)
 .debug_str     0x0000de11       0xb3 cpu/arm920t/wmt/libwmt.a(vpci.o)
                                0x1fd (size before relaxing)
 .debug_str     0x0000dec4      0x405 cpu/arm920t/wmt/libwmt.a(dma.o)
                                0x79d (size before relaxing)
 .debug_str     0x0000e2c9      0x785 cpu/arm920t/wmt/libwmt.a(mmc.o)
                                0xe64 (size before relaxing)
 .debug_str     0x0000ea4e      0x30e cpu/arm920t/wmt/libwmt.a(mac.o)
                                0x48f (size before relaxing)
 .debug_str     0x0000ed5c      0x22e lib_arm/libarm.a(armlinux.o)
                                0x573 (size before relaxing)
 .debug_str     0x0000ef8a       0x22 lib_arm/libarm.a(cache.o)
                                 0xf1 (size before relaxing)
 .debug_str     0x0000efac      0x4d9 fs/fat/libfat.a(fat.o)
                                0x750 (size before relaxing)
 .debug_str     0x0000f485       0xa7 disk/libdisk.a(part.o)
                                0x211 (size before relaxing)
 .debug_str     0x0000f52c      0x148 disk/libdisk.a(part_dos.o)
                                0x2fc (size before relaxing)
 .debug_str     0x0000f674       0xaf cpu/arm920t/wmt/libwmt.a(zde.o)
                                0x1b1 (size before relaxing)

.debug_loc      0x00000000    0x35c85
 *(.debug_loc)
 .debug_loc     0x00000000      0x21d cpu/arm920t/libarm920t.a(interrupts.o)
 .debug_loc     0x0000021d      0x1f6 cpu/arm920t/wmt/libwmt.a(interrupts.o)
 .debug_loc     0x00000413      0x1da lib_arm/libarm.a(board.o)
 .debug_loc     0x000005ed      0xd9d net/libnet.a(net.o)
 .debug_loc     0x0000138a      0x38c net/libnet.a(tftp.o)
 .debug_loc     0x00001716      0x716 net/libnet.a(bootp.o)
 .debug_loc     0x00001e2c      0x12d net/libnet.a(rarp.o)
 .debug_loc     0x00001f59      0x112 net/libnet.a(eth.o)
 .debug_loc     0x0000206b      0xb4d net/libnet.a(nfs.o)
 .debug_loc     0x00002bb8      0x950 common/libcommon.a(main.o)
 .debug_loc     0x00003508      0x1fa common/libcommon.a(cmd_autoscript.o)
 .debug_loc     0x00003702       0xea common/libcommon.a(cmd_bdinfo.o)
 .debug_loc     0x000037ec      0x123 common/libcommon.a(cmd_boot.o)
 .debug_loc     0x0000390f      0xa81 common/libcommon.a(cmd_bootm.o)
 .debug_loc     0x00004390       0xc9 common/libcommon.a(cmd_console.o)
 .debug_loc     0x00004459      0x71a common/libcommon.a(cmd_fat.o)
 .debug_loc     0x00004b73      0xe3b common/libcommon.a(cmd_flash.o)
 .debug_loc     0x000059ae      0xc18 common/libcommon.a(cmd_i2c.o)
 .debug_loc     0x000065c6      0xb61 common/libcommon.a(cmd_ide.o)
 .debug_loc     0x00007127      0x542 common/libcommon.a(cmd_itest.o)
 .debug_loc     0x00007669      0xb0f common/libcommon.a(cmd_load.o)
 .debug_loc     0x00008178     0x1352 common/libcommon.a(cmd_mem.o)
 .debug_loc     0x000094ca      0x905 common/libcommon.a(cmd_mii.o)
 .debug_loc     0x00009dcf       0xab common/libcommon.a(cmd_misc.o)
 .debug_loc     0x00009e7a      0x9cc common/libcommon.a(cmd_mmc.o)
 .debug_loc     0x0000a846      0x205 common/libcommon.a(cmd_dma.o)
 .debug_loc     0x0000aa4b     0x604b common/libcommon.a(cmd_nand.o)
 .debug_loc     0x00010a96      0x2ae common/libcommon.a(cmd_net.o)
 .debug_loc     0x00010d44      0xa04 common/libcommon.a(cmd_nvedit.o)
 .debug_loc     0x00011748      0xb2f common/libcommon.a(cmd_usb.o)
 .debug_loc     0x00012277     0x10cc common/libcommon.a(command.o)
 .debug_loc     0x00013343      0x553 common/libcommon.a(console.o)
 .debug_loc     0x00013896       0x8b common/libcommon.a(devices.o)
 .debug_loc     0x00013921     0x14d3 common/libcommon.a(dlmalloc.o)
 .debug_loc     0x00014df4      0x284 common/libcommon.a(env_common.o)
 .debug_loc     0x00015078      0x23d common/libcommon.a(env_flash.o)
 .debug_loc     0x000152b5       0x28 common/libcommon.a(exports.o)
 .debug_loc     0x000152dd      0x32f common/libcommon.a(wmt_cmd_display.o)
 .debug_loc     0x0001560c      0xb11 common/libcommon.a(minivgui.o)
 .debug_loc     0x0001611d      0x270 common/libcommon.a(uboot-vpp.o)
 .debug_loc     0x0001638d      0x164 common/libcommon.a(cmd_mbit.o)
 .debug_loc     0x000164f1      0x27a common/libcommon.a(cmd_textout.o)
 .debug_loc     0x0001676b      0x160 common/libcommon.a(env_parse.o)
 .debug_loc     0x000168cb      0x33c common/libcommon.a(flash.o)
 .debug_loc     0x00016c07     0x1cd0 common/libcommon.a(hush.o)
 .debug_loc     0x000188d7      0x419 common/libcommon.a(lists.o)
 .debug_loc     0x00018cf0      0x6af common/libcommon.a(miiphyutil.o)
 .debug_loc     0x0001939f      0x379 common/libcommon.a(s_record.o)
 .debug_loc     0x00019718     0x15dc common/libcommon.a(usb.o)
 .debug_loc     0x0001acf4      0xe5f common/libcommon.a(usb_storage.o)
 .debug_loc     0x0001bb53      0x41b common/libcommon.a(pwm.o)
 .debug_loc     0x0001bf6e     0x10ab common/libcommon.a(govrh.o)
 .debug_loc     0x0001d019      0xe15 common/libcommon.a(vout.o)
 .debug_loc     0x0001de2e      0x219 common/libcommon.a(lcd.o)
 .debug_loc     0x0001e047      0x182 common/libcommon.a(lvds.o)
 .debug_loc     0x0001e1c9     0x1414 common/libcommon.a(vpp.o)
 .debug_loc     0x0001f5dd     0x106c common/libcommon.a(hdmi.o)
 .debug_loc     0x00020649      0xf3f common/libcommon.a(parse-edid.o)
 .debug_loc     0x00021588      0xdd0 common/libcommon.a(vout-wmt.o)
 .debug_loc     0x00022358       0xc6 common/libcommon.a(lcd-oem.o)
 .debug_loc     0x0002241e       0x13 common/libcommon.a(lcd-AUO-A080SN01.o)
 .debug_loc     0x00022431       0x13 common/libcommon.a(lcd-INNOLUX-AT070TN83.o)
 .debug_loc     0x00022444       0x22 common/libcommon.a(lcd-CHILIN-LW700at9003.o)
 .debug_loc     0x00022466       0x13 common/libcommon.a(lcd-EKING-EK08009-70135.o)
 .debug_loc     0x00022479       0x13 common/libcommon.a(lcd-HANNSTAR-HSD101PFW2.o)
 .debug_loc     0x0002248c      0x14f common/libcommon.a(vt1632.o)
 .debug_loc     0x000225db      0x432 common/libcommon.a(cs8556.o)
 .debug_loc     0x00022a0d      0x174 common/libcommon.a(wmt-ost.o)
 .debug_loc     0x00022b81      0x7c0 common/libcommon.a(vpp-osif.o)
 .debug_loc     0x00023341      0x6b7 common/libcommon.a(sw_i2c.o)
 .debug_loc     0x000239f8      0x133 lib_generic/libgeneric.a(crc32.o)
 .debug_loc     0x00023b2b      0x106 lib_generic/libgeneric.a(display_options.o)
 .debug_loc     0x00023c31      0xb8d lib_generic/libgeneric.a(string.o)
 .debug_loc     0x000247be      0xab7 lib_generic/libgeneric.a(vsprintf.o)
 .debug_loc     0x00025275     0x32b0 lib_generic/libgeneric.a(zlib.o)
 .debug_loc     0x00028525       0x20 board/wmt/libwmt.a(wmt.o)
 .debug_loc     0x00028545      0x473 board/wmt/libwmt.a(flash.o)
 .debug_loc     0x000289b8      0x4f1 board/wmt/libwmt.a(spi_flash.o)
 .debug_loc     0x00028ea9       0x26 board/wmt/libwmt.a(nand_flash.o)
 .debug_loc     0x00028ecf      0x9b4 board/wmt/libwmt.a(nor_flash_8bit.o)
 .debug_loc     0x00029883      0x9be board/wmt/libwmt.a(nor_flash_16bit.o)
 .debug_loc     0x0002a241     0x116d board/wmt/libwmt.a(wmt_clk.o)
 .debug_loc     0x0002b3ae      0xdc8 board/wmt/libwmt.a(ehci-hcd.o)
 .debug_loc     0x0002c176     0x10a4 board/wmt/libwmt.a(usb_uhci.o)
 .debug_loc     0x0002d21a      0x881 board/wmt/libwmt.a(wmt_i2c.o)
 .debug_loc     0x0002da9b      0x7c3 board/wmt/libwmt.a(wmt_i2c_1.o)
 .debug_loc     0x0002e25e      0x7a4 board/wmt/libwmt.a(wmt_i2c_2.o)
 .debug_loc     0x0002ea02      0x7a4 board/wmt/libwmt.a(wmt_i2c_3.o)
 .debug_loc     0x0002f1a6      0x198 cpu/arm920t/libarm920t.a(cpu.o)
 .debug_loc     0x0002f33e       0xf1 cpu/arm920t/wmt/libwmt.a(serial.o)
 .debug_loc     0x0002f42f       0xeb cpu/arm920t/wmt/libwmt.a(ether.o)
 .debug_loc     0x0002f51a      0x3fe cpu/arm920t/wmt/libwmt.a(macif.o)
 .debug_loc     0x0002f918      0x4ff cpu/arm920t/wmt/libwmt.a(adapter.o)
 .debug_loc     0x0002fe17      0x38a cpu/arm920t/wmt/libwmt.a(alloct.o)
 .debug_loc     0x000301a1      0x501 cpu/arm920t/wmt/libwmt.a(mii.o)
 .debug_loc     0x000306a2       0xc4 cpu/arm920t/wmt/libwmt.a(mem.o)
 .debug_loc     0x00030766      0x2c7 cpu/arm920t/wmt/libwmt.a(vpci.o)
 .debug_loc     0x00030a2d      0xcd5 cpu/arm920t/wmt/libwmt.a(dma.o)
 .debug_loc     0x00031702     0x16c5 cpu/arm920t/wmt/libwmt.a(mmc.o)
 .debug_loc     0x00032dc7      0x775 cpu/arm920t/wmt/libwmt.a(mac.o)
 .debug_loc     0x0003353c      0x278 lib_arm/libarm.a(armlinux.o)
 .debug_loc     0x000337b4     0x1eb7 fs/fat/libfat.a(fat.o)
 .debug_loc     0x0003566b      0x25c disk/libdisk.a(part.o)
 .debug_loc     0x000358c7      0x392 disk/libdisk.a(part_dos.o)
 .debug_loc     0x00035c59       0x2c cpu/arm920t/wmt/libwmt.a(zde.o)

.debug_macinfo
 *(.debug_macinfo)

.debug_weaknames
 *(.debug_weaknames)

.debug_funcnames
 *(.debug_funcnames)

.debug_typenames
 *(.debug_typenames)

.debug_varnames
 *(.debug_varnames)
Address of section .text set to 0x3f80000
LOAD cpu/arm920t/start.o
START GROUP
LOAD lib_generic/libgeneric.a
LOAD board/wmt/libwmt.a
LOAD cpu/arm920t/libarm920t.a
LOAD cpu/arm920t/wmt/libwmt.a
LOAD lib_arm/libarm.a
LOAD fs/cramfs/libcramfs.a
LOAD fs/fat/libfat.a
LOAD fs/fdos/libfdos.a
LOAD fs/jffs2/libjffs2.a
LOAD fs/reiserfs/libreiserfs.a
LOAD fs/ext2/libext2fs.a
LOAD net/libnet.a
LOAD disk/libdisk.a
LOAD rtc/librtc.a
LOAD dtt/libdtt.a
LOAD drivers/libdrivers.a
LOAD drivers/sk98lin/libsk98lin.a
LOAD post/libpost.a
LOAD post/cpu/libcpu.a
LOAD common/libcommon.a
END GROUP
LOAD /home/pd2/toolchain/arm_201103_gcc4.5.2/bin/../lib/gcc/arm-none-linux-gnueabi/4.5.2/libgcc.a
OUTPUT(u-boot elf32-littlearm)

.debug_pubtypes
                0x00000000     0x59b6
 .debug_pubtypes
                0x00000000       0x1e cpu/arm920t/libarm920t.a(interrupts.o)
 .debug_pubtypes
                0x0000001e       0x36 cpu/arm920t/wmt/libwmt.a(interrupts.o)
 .debug_pubtypes
                0x00000054       0x7e lib_arm/libarm.a(board.o)
 .debug_pubtypes
                0x000000d2       0xfb net/libnet.a(net.o)
 .debug_pubtypes
                0x000001cd       0x48 net/libnet.a(tftp.o)
 .debug_pubtypes
                0x00000215       0x85 net/libnet.a(bootp.o)
 .debug_pubtypes
                0x0000029a       0x52 net/libnet.a(rarp.o)
 .debug_pubtypes
                0x000002ec       0x42 net/libnet.a(eth.o)
 .debug_pubtypes
                0x0000032e       0x74 net/libnet.a(nfs.o)
 .debug_pubtypes
                0x000003a2       0x2e common/libcommon.a(main.o)
 .debug_pubtypes
                0x000003d0       0x92 common/libcommon.a(cmd_autoscript.o)
 .debug_pubtypes
                0x00000462       0x66 common/libcommon.a(cmd_bdinfo.o)
 .debug_pubtypes
                0x000004c8       0x38 common/libcommon.a(cmd_boot.o)
 .debug_pubtypes
                0x00000500      0x18a common/libcommon.a(cmd_bootm.o)
 .debug_pubtypes
                0x0000068a       0x58 common/libcommon.a(cmd_console.o)
 .debug_pubtypes
                0x000006e2       0x6d common/libcommon.a(cmd_fat.o)
 .debug_pubtypes
                0x0000074f       0x5e common/libcommon.a(cmd_flash.o)
 .debug_pubtypes
                0x000007ad       0x60 common/libcommon.a(cmd_i2c.o)
 .debug_pubtypes
                0x0000080d      0x11e common/libcommon.a(cmd_ide.o)
 .debug_pubtypes
                0x0000092b       0x5c common/libcommon.a(cmd_itest.o)
 .debug_pubtypes
                0x00000987       0x66 common/libcommon.a(cmd_load.o)
 .debug_pubtypes
                0x000009ed       0x61 common/libcommon.a(cmd_mem.o)
 .debug_pubtypes
                0x00000a4e       0xe3 common/libcommon.a(cmd_mii.o)
 .debug_pubtypes
                0x00000b31       0x38 common/libcommon.a(cmd_misc.o)
 .debug_pubtypes
                0x00000b69       0xb9 common/libcommon.a(cmd_mmc.o)
 .debug_pubtypes
                0x00000c22       0x66 common/libcommon.a(cmd_dma.o)
 .debug_pubtypes
                0x00000c88      0x16b common/libcommon.a(cmd_nand.o)
 .debug_pubtypes
                0x00000df3       0x51 common/libcommon.a(cmd_net.o)
 .debug_pubtypes
                0x00000e44       0x8c common/libcommon.a(cmd_nvedit.o)
 .debug_pubtypes
                0x00000ed0      0x1a2 common/libcommon.a(cmd_usb.o)
 .debug_pubtypes
                0x00001072       0x2e common/libcommon.a(command.o)
 .debug_pubtypes
                0x000010a0       0xaa common/libcommon.a(console.o)
 .debug_pubtypes
                0x0000114a       0x3c common/libcommon.a(devices.o)
 .debug_pubtypes
                0x00001186       0xa1 common/libcommon.a(dlmalloc.o)
 .debug_pubtypes
                0x00001227       0x70 common/libcommon.a(env_common.o)
 .debug_pubtypes
                0x00001297       0x70 common/libcommon.a(env_flash.o)
 .debug_pubtypes
                0x00001307       0x4a common/libcommon.a(exports.o)
 .debug_pubtypes
                0x00001351      0x199 common/libcommon.a(wmt_cmd_display.o)
 .debug_pubtypes
                0x000014ea      0x19c common/libcommon.a(minivgui.o)
 .debug_pubtypes
                0x00001686      0x256 common/libcommon.a(uboot-vpp.o)
 .debug_pubtypes
                0x000018dc      0x140 common/libcommon.a(cmd_mbit.o)
 .debug_pubtypes
                0x00001a1c      0x168 common/libcommon.a(cmd_textout.o)
 .debug_pubtypes
                0x00001b84      0x145 common/libcommon.a(env_parse.o)
 .debug_pubtypes
                0x00001cc9       0x42 common/libcommon.a(flash.o)
 .debug_pubtypes
                0x00001d0b      0x110 common/libcommon.a(hush.o)
 .debug_pubtypes
                0x00001e1b       0x4b common/libcommon.a(lists.o)
 .debug_pubtypes
                0x00001e66       0x2c common/libcommon.a(miiphyutil.o)
 .debug_pubtypes
                0x00001e92       0x1c common/libcommon.a(s_record.o)
 .debug_pubtypes
                0x00001eae      0x168 common/libcommon.a(usb.o)
 .debug_pubtypes
                0x00002016      0x18f common/libcommon.a(usb_storage.o)
 .debug_pubtypes
                0x000021a5      0x15c common/libcommon.a(pwm.o)
 .debug_pubtypes
                0x00002301      0x1b6 common/libcommon.a(govrh.o)
 .debug_pubtypes
                0x000024b7      0x208 common/libcommon.a(vout.o)
 .debug_pubtypes
                0x000026bf      0x206 common/libcommon.a(lcd.o)
 .debug_pubtypes
                0x000028c5      0x11a common/libcommon.a(lvds.o)
 .debug_pubtypes
                0x000029df      0x1bd common/libcommon.a(vpp.o)
 .debug_pubtypes
                0x00002b9c      0x18b common/libcommon.a(hdmi.o)
 .debug_pubtypes
                0x00002d27      0x1e5 common/libcommon.a(parse-edid.o)
 .debug_pubtypes
                0x00002f0c      0x263 common/libcommon.a(vout-wmt.o)
 .debug_pubtypes
                0x0000316f      0x13a common/libcommon.a(lcd-oem.o)
 .debug_pubtypes
                0x000032a9      0x13a common/libcommon.a(lcd-AUO-A080SN01.o)
 .debug_pubtypes
                0x000033e3      0x13a common/libcommon.a(lcd-INNOLUX-AT070TN83.o)
 .debug_pubtypes
                0x0000351d      0x13a common/libcommon.a(lcd-CHILIN-LW700at9003.o)
 .debug_pubtypes
                0x00003657      0x13a common/libcommon.a(lcd-EKING-EK08009-70135.o)
 .debug_pubtypes
                0x00003791      0x13a common/libcommon.a(lcd-HANNSTAR-HSD101PFW2.o)
 .debug_pubtypes
                0x000038cb      0x1ea common/libcommon.a(vt1632.o)
 .debug_pubtypes
                0x00003ab5      0x11a common/libcommon.a(sil902x.o)
 .debug_pubtypes
                0x00003bcf      0x221 common/libcommon.a(cs8556.o)
 .debug_pubtypes
                0x00003df0      0x12a common/libcommon.a(wmt-ost.o)
 .debug_pubtypes
                0x00003f1a      0x128 common/libcommon.a(vpp-osif.o)
 .debug_pubtypes
                0x00004042      0x150 common/libcommon.a(sw_i2c.o)
 .debug_pubtypes
                0x00004192       0x4d lib_generic/libgeneric.a(crc32.o)
 .debug_pubtypes
                0x000041df       0x1c lib_generic/libgeneric.a(display_options.o)
 .debug_pubtypes
                0x000041fb       0x31 lib_generic/libgeneric.a(string.o)
 .debug_pubtypes
                0x0000422c       0x3f lib_generic/libgeneric.a(vsprintf.o)
 .debug_pubtypes
                0x0000426b      0x151 lib_generic/libgeneric.a(zlib.o)
 .debug_pubtypes
                0x000043bc       0x4a board/wmt/libwmt.a(wmt.o)
 .debug_pubtypes
                0x00004406       0x90 board/wmt/libwmt.a(flash.o)
 .debug_pubtypes
                0x00004496       0x12 board/wmt/libwmt.a(main.o)
 .debug_pubtypes
                0x000044a8       0x6a board/wmt/libwmt.a(spi_flash.o)
 .debug_pubtypes
                0x00004512       0x42 board/wmt/libwmt.a(nand_flash.o)
 .debug_pubtypes
                0x00004554       0x6d board/wmt/libwmt.a(nor_flash_8bit.o)
 .debug_pubtypes
                0x000045c1       0x77 board/wmt/libwmt.a(nor_flash_16bit.o)
 .debug_pubtypes
                0x00004638       0x29 board/wmt/libwmt.a(wmt_clk.o)
 .debug_pubtypes
                0x00004661      0x33a board/wmt/libwmt.a(ehci-hcd.o)
 .debug_pubtypes
                0x0000499b      0x102 board/wmt/libwmt.a(usb_uhci.o)
 .debug_pubtypes
                0x00004a9d       0x6f board/wmt/libwmt.a(wmt_i2c.o)
 .debug_pubtypes
                0x00004b0c       0x6f board/wmt/libwmt.a(wmt_i2c_1.o)
 .debug_pubtypes
                0x00004b7b       0x6f board/wmt/libwmt.a(wmt_i2c_2.o)
 .debug_pubtypes
                0x00004bea       0x6f board/wmt/libwmt.a(wmt_i2c_3.o)
 .debug_pubtypes
                0x00004c59       0x38 cpu/arm920t/libarm920t.a(cpu.o)
 .debug_pubtypes
                0x00004c91       0x84 cpu/arm920t/wmt/libwmt.a(serial.o)
 .debug_pubtypes
                0x00004d15       0x31 cpu/arm920t/wmt/libwmt.a(ether.o)
 .debug_pubtypes
                0x00004d46      0x1a5 cpu/arm920t/wmt/libwmt.a(macif.o)
 .debug_pubtypes
                0x00004eeb      0x1be cpu/arm920t/wmt/libwmt.a(adapter.o)
 .debug_pubtypes
                0x000050a9      0x1a5 cpu/arm920t/wmt/libwmt.a(alloct.o)
 .debug_pubtypes
                0x0000524e       0x39 cpu/arm920t/wmt/libwmt.a(mii.o)
 .debug_pubtypes
                0x00005287       0x97 cpu/arm920t/wmt/libwmt.a(mem.o)
 .debug_pubtypes
                0x0000531e       0x31 cpu/arm920t/wmt/libwmt.a(vpci.o)
 .debug_pubtypes
                0x0000534f       0xc8 cpu/arm920t/wmt/libwmt.a(dma.o)
 .debug_pubtypes
                0x00005417      0x100 cpu/arm920t/wmt/libwmt.a(mmc.o)
 .debug_pubtypes
                0x00005517       0x4e cpu/arm920t/wmt/libwmt.a(mac.o)
 .debug_pubtypes
                0x00005565      0x1ac lib_arm/libarm.a(armlinux.o)
 .debug_pubtypes
                0x00005711       0x12 lib_arm/libarm.a(cache.o)
 .debug_pubtypes
                0x00005723      0x121 fs/fat/libfat.a(fat.o)
 .debug_pubtypes
                0x00005844       0x83 disk/libdisk.a(part.o)
 .debug_pubtypes
                0x000058c7       0xa9 disk/libdisk.a(part_dos.o)
 .debug_pubtypes
                0x00005970       0x46 cpu/arm920t/wmt/libwmt.a(zde.o)

.debug_ranges   0x00000000     0x1e98
 .debug_ranges  0x00000000       0x40 lib_arm/libarm.a(board.o)
 .debug_ranges  0x00000040       0x38 net/libnet.a(net.o)
 .debug_ranges  0x00000078       0x30 net/libnet.a(tftp.o)
 .debug_ranges  0x000000a8       0x88 net/libnet.a(bootp.o)
 .debug_ranges  0x00000130       0x30 net/libnet.a(nfs.o)
 .debug_ranges  0x00000160       0xb8 common/libcommon.a(main.o)
 .debug_ranges  0x00000218       0x30 common/libcommon.a(cmd_bootm.o)
 .debug_ranges  0x00000248       0x18 common/libcommon.a(cmd_console.o)
 .debug_ranges  0x00000260       0x48 common/libcommon.a(cmd_fat.o)
 .debug_ranges  0x000002a8       0x18 common/libcommon.a(cmd_flash.o)
 .debug_ranges  0x000002c0       0x18 common/libcommon.a(cmd_i2c.o)
 .debug_ranges  0x000002d8       0x78 common/libcommon.a(cmd_ide.o)
 .debug_ranges  0x00000350       0x18 common/libcommon.a(cmd_itest.o)
 .debug_ranges  0x00000368      0x110 common/libcommon.a(cmd_load.o)
 .debug_ranges  0x00000478       0x18 common/libcommon.a(cmd_mem.o)
 .debug_ranges  0x00000490       0x80 common/libcommon.a(cmd_mii.o)
 .debug_ranges  0x00000510       0xc8 common/libcommon.a(cmd_nand.o)
 .debug_ranges  0x000005d8       0x50 common/libcommon.a(cmd_nvedit.o)
 .debug_ranges  0x00000628       0x50 common/libcommon.a(cmd_usb.o)
 .debug_ranges  0x00000678       0x90 common/libcommon.a(command.o)
 .debug_ranges  0x00000708       0x30 common/libcommon.a(console.o)
 .debug_ranges  0x00000738       0x80 common/libcommon.a(minivgui.o)
 .debug_ranges  0x000007b8       0x30 common/libcommon.a(uboot-vpp.o)
 .debug_ranges  0x000007e8       0x48 common/libcommon.a(flash.o)
 .debug_ranges  0x00000830      0x1e8 common/libcommon.a(hush.o)
 .debug_ranges  0x00000a18       0x50 common/libcommon.a(usb.o)
 .debug_ranges  0x00000a68      0x110 common/libcommon.a(usb_storage.o)
 .debug_ranges  0x00000b78       0x18 common/libcommon.a(lcd.o)
 .debug_ranges  0x00000b90       0x18 common/libcommon.a(vpp.o)
 .debug_ranges  0x00000ba8      0x148 common/libcommon.a(parse-edid.o)
 .debug_ranges  0x00000cf0       0x80 common/libcommon.a(vout-wmt.o)
 .debug_ranges  0x00000d70       0x30 common/libcommon.a(vpp-osif.o)
 .debug_ranges  0x00000da0      0x220 lib_generic/libgeneric.a(zlib.o)
 .debug_ranges  0x00000fc0       0xe0 board/wmt/libwmt.a(spi_flash.o)
 .debug_ranges  0x000010a0       0xb0 board/wmt/libwmt.a(nor_flash_8bit.o)
 .debug_ranges  0x00001150       0xe8 board/wmt/libwmt.a(nor_flash_16bit.o)
 .debug_ranges  0x00001238       0xb0 board/wmt/libwmt.a(usb_uhci.o)
 .debug_ranges  0x000012e8      0x1b0 board/wmt/libwmt.a(wmt_i2c.o)
 .debug_ranges  0x00001498      0x1b0 board/wmt/libwmt.a(wmt_i2c_1.o)
 .debug_ranges  0x00001648      0x1b0 board/wmt/libwmt.a(wmt_i2c_2.o)
 .debug_ranges  0x000017f8      0x1b0 board/wmt/libwmt.a(wmt_i2c_3.o)
 .debug_ranges  0x000019a8       0xc0 cpu/arm920t/wmt/libwmt.a(macif.o)
 .debug_ranges  0x00001a68       0x80 cpu/arm920t/wmt/libwmt.a(adapter.o)
 .debug_ranges  0x00001ae8       0x60 cpu/arm920t/wmt/libwmt.a(mii.o)
 .debug_ranges  0x00001b48      0x1d0 cpu/arm920t/wmt/libwmt.a(mac.o)
 .debug_ranges  0x00001d18      0x128 fs/fat/libfat.a(fat.o)
 .debug_ranges  0x00001e40       0x18 disk/libdisk.a(part_dos.o)
 .debug_ranges  0x00001e58       0x40 cpu/arm920t/wmt/libwmt.a(zde.o)
